ccollections
OrderedDict
p1
((lp2
(lp3
V 
aI1
aa(lp4
Va
aI2
aa(lp5
Vo
aI3
aa(lp6
Vi
aI4
aa(lp7
Ve
aI5
aa(lp8
V9
aI6
aa(lp9
Vl
aI7
aa(lp10
Vr
aI8
aa(lp11
Vc
aI9
aa(lp12
Vm
aI10
aa(lp13
Vt
aI11
aa(lp14
Vn
aI12
aa(lp15
Vs
aI13
aa(lp16
Vp
aI14
aa(lp17
Vd
aI15
aa(lp18
Vg
aI16
aa(lp19
Vu
aI17
aa(lp20
Vf
aI18
aa(lp21
Vb
aI19
aa(lp22
Vx
aI20
aa(lp23
Vv
aI21
aa(lp24
Vh
aI22
aa(lp25
Vz
aI23
aa(lp26
Vk
aI24
aa(lp27
Vj
aI25
aa(lp28
Vq
aI26
aa(lp29
V/
aI27
aa(lp30
Vy
aI28
aa(lp31
Vw
aI29
aatRp32
.ccollections
OrderedDict
p1
((lp2
(lp3
Ve
aI3511
aa(lp4
Vs
aI1893
aa(lp5
Vc
aI2802
aa(lp6
Vo
aI4103
aa(lp7
Vv
aI606
aa(lp8
Va
aI5148
aa(lp9
V 
aI10892
aa(lp10
Vd
aI1581
aa(lp11
Vr
aI2820
aa(lp12
Vb
aI773
aa(lp13
Vn
aI2138
aa(lp14
Vi
aI3546
aa(lp15
Vf
aI810
aa(lp16
Vu
aI1022
aa(lp17
Vm
aI2530
aa(lp18
V9
aI3107
aa(lp19
Vt
aI2410
aa(lp20
Vl
aI2931
aa(lp21
Vp
aI1769
aa(lp22
Vg
aI1314
aa(lp23
Vk
aI179
aa(lp24
Vq
aI154
aa(lp25
Vh
aI405
aa(lp26
V/
aI100
aa(lp27
Vx
aI747
aa(lp28
Vz
aI292
aa(lp29
Vy
aI58
aa(lp30
Vw
aI31
aa(lp31
Vj
aI171
aatRp32
.