ccollections
OrderedDict
p1
((lp2
(lp3
V 
aI1
aa(lp4
Va
aI2
aa(lp5
Vo
aI3
aa(lp6
Vi
aI4
aa(lp7
V9
aI5
aa(lp8
Ve
aI6
aa(lp9
Vc
aI7
aa(lp10
Vl
aI8
aa(lp11
Vm
aI9
aa(lp12
Vr
aI10
aa(lp13
Vt
aI11
aa(lp14
Vn
aI12
aa(lp15
Vp
aI13
aa(lp16
Vg
aI14
aa(lp17
Vs
aI15
aa(lp18
Vd
aI16
aa(lp19
Vx
aI17
aa(lp20
Vu
aI18
aa(lp21
Vf
aI19
aa(lp22
Vb
aI20
aa(lp23
Vv
aI21
aa(lp24
Vh
aI22
aa(lp25
Vz
aI23
aa(lp26
Vk
aI24
aa(lp27
Vj
aI25
aa(lp28
Vq
aI26
aa(lp29
Vy
aI27
aa(lp30
V/
aI28
aa(lp31
Vw
aI29
aatRp32
.ccollections
OrderedDict
p1
((lp2
(lp3
Vc
aI1412
aa(lp4
Vo
aI1804
aa(lp5
V 
aI5908
aa(lp6
Vr
aI1185
aa(lp7
Va
aI2251
aa(lp8
Vl
aI1295
aa(lp9
Vd
aI695
aa(lp10
Vm
aI1214
aa(lp11
Vi
aI1637
aa(lp12
Vs
aI712
aa(lp13
V9
aI1621
aa(lp14
Vg
aI800
aa(lp15
Vb
aI294
aa(lp16
Vk
aI126
aa(lp17
Ve
aI1456
aa(lp18
Vv
aI228
aa(lp19
Vt
aI1035
aa(lp20
Vp
aI926
aa(lp21
Vq
aI53
aa(lp22
Vu
aI431
aa(lp23
Vh
aI173
aa(lp24
Vn
aI1025
aa(lp25
Vx
aI431
aa(lp26
Vf
aI322
aa(lp27
Vy
aI39
aa(lp28
Vj
aI88
aa(lp29
V/
aI19
aa(lp30
Vz
aI154
aa(lp31
Vw
aI7
aatRp32
.