ccollections
OrderedDict
p1
((lp2
(lp3
V 
aI1
aa(lp4
Va
aI2
aa(lp5
Vo
aI3
aa(lp6
Vi
aI4
aa(lp7
V9
aI5
aa(lp8
Vc
aI6
aa(lp9
Ve
aI7
aa(lp10
Vl
aI8
aa(lp11
Vm
aI9
aa(lp12
Vr
aI10
aa(lp13
Vt
aI11
aa(lp14
Vn
aI12
aa(lp15
Vp
aI13
aa(lp16
Vg
aI14
aa(lp17
Vs
aI15
aa(lp18
Vd
aI16
aa(lp19
Vu
aI17
aa(lp20
Vx
aI18
aa(lp21
Vf
aI19
aa(lp22
Vb
aI20
aa(lp23
Vv
aI21
aa(lp24
Vh
aI22
aa(lp25
Vz
aI23
aa(lp26
Vk
aI24
aa(lp27
Vj
aI25
aa(lp28
Vq
aI26
aa(lp29
Vy
aI27
aa(lp30
V/
aI28
aa(lp31
Vw
aI29
aatRp32
.ccollections
OrderedDict
p1
((lp2
(lp3
Vp
aI556
aa(lp4
Va
aI1331
aa(lp5
Ve
aI847
aa(lp6
Vl
aI733
aa(lp7
V 
aI3424
aa(lp8
Vs
aI432
aa(lp9
Vu
aI263
aa(lp10
Vf
aI185
aa(lp11
Vi
aI978
aa(lp12
Vt
aI625
aa(lp13
V9
aI934
aa(lp14
Vc
aI857
aa(lp15
Vn
aI614
aa(lp16
Vx
aI219
aa(lp17
Vr
aI679
aa(lp18
Vb
aI164
aa(lp19
Vv
aI129
aa(lp20
Vm
aI716
aa(lp21
Vo
aI1074
aa(lp22
Vd
aI424
aa(lp23
Vz
aI102
aa(lp24
Vg
aI475
aa(lp25
Vq
aI28
aa(lp26
Vj
aI56
aa(lp27
Vk
aI76
aa(lp28
Vh
aI103
aa(lp29
V/
aI8
aa(lp30
Vy
aI21
aa(lp31
Vw
aI5
aatRp32
.