ccollections
OrderedDict
p1
((lp2
(lp3
V 
aI1
aa(lp4
Va
aI2
aa(lp5
Vo
aI3
aa(lp6
Ve
aI4
aa(lp7
Vi
aI5
aa(lp8
V9
aI6
aa(lp9
Vl
aI7
aa(lp10
Vr
aI8
aa(lp11
Vc
aI9
aa(lp12
Vm
aI10
aa(lp13
Vt
aI11
aa(lp14
Vn
aI12
aa(lp15
Vs
aI13
aa(lp16
Vp
aI14
aa(lp17
Vd
aI15
aa(lp18
Vg
aI16
aa(lp19
Vu
aI17
aa(lp20
Vf
aI18
aa(lp21
Vb
aI19
aa(lp22
Vx
aI20
aa(lp23
Vv
aI21
aa(lp24
Vh
aI22
aa(lp25
Vz
aI23
aa(lp26
Vk
aI24
aa(lp27
Vq
aI25
aa(lp28
Vj
aI26
aa(lp29
V/
aI27
aa(lp30
Vy
aI28
aa(lp31
Vw
aI29
aatRp32
.ccollections
OrderedDict
p1
((lp2
(lp3
Vb
aI464
aa(lp4
Vo
aI2440
aa(lp5
Vl
aI1737
aa(lp6
Vs
aI1135
aa(lp7
Va
aI3044
aa(lp8
Vp
aI1051
aa(lp9
Ve
aI2140
aa(lp10
Vr
aI1692
aa(lp11
Vf
aI483
aa(lp12
Vu
aI610
aa(lp13
Vt
aI1476
aa(lp14
Vm
aI1514
aa(lp15
Vi
aI2139
aa(lp16
Vn
aI1297
aa(lp17
Vc
aI1674
aa(lp18
V 
aI6533
aa(lp19
V9
aI1851
aa(lp20
Vv
aI366
aa(lp21
Vd
aI949
aa(lp22
Vg
aI808
aa(lp23
Vk
aI110
aa(lp24
Vq
aI101
aa(lp25
V/
aI56
aa(lp26
Vx
aI450
aa(lp27
Vh
aI240
aa(lp28
Vz
aI176
aa(lp29
Vy
aI27
aa(lp30
Vj
aI93
aa(lp31
Vw
aI18
aatRp32
.