ccollections
OrderedDict
p1
((lp2
(lp3
Vindefinido
p4
aI1
aa(lp5
Vcomp
p6
aI2
aa(lp7
Vgrama
p8
aI3
aa(lp9
Vlitro
p10
aI4
aa(lp11
Vunidade
p12
aI5
aa(lp13
Vkg
p14
aI6
aa(lp15
Vmetro
p16
aI7
aa(lp17
Vm3
p18
aI8
aa(lp19
Vcaixa
p20
aI9
aa(lp21
Vampola
p22
aI10
aa(lp23
Vfrasco
p24
aI11
aa(lp25
Vconjunto
p26
aI12
aa(lp27
Vkit
p28
aI13
aa(lp29
Vcilindro
p30
aI14
aa(lp31
Vrolo
p32
aI15
aa(lp33
Vgalao
p34
aI16
aatRp35
.ccollections
OrderedDict
p1
((lp2
(lp3
Vindefinido
p4
aI1092
aa(lp5
Vgrama
p6
aI132
aa(lp7
Vkg
p8
aI74
aa(lp9
Vkit
p10
aI26
aa(lp11
Vcomp
p12
aI139
aa(lp13
Vunidade
p14
aI120
aa(lp15
Vlitro
p16
aI120
aa(lp17
Vcaixa
p18
aI39
aa(lp19
Vampola
p20
aI34
aa(lp21
Vconjunto
p22
aI27
aa(lp23
Vmetro
p24
aI59
aa(lp25
Vfrasco
p26
aI31
aa(lp27
Vrolo
p28
aI9
aa(lp29
Vm3
p30
aI44
aa(lp31
Vcilindro
p32
aI9
aa(lp33
Vgalao
p34
aI8
aatRp35
.