ccollections
OrderedDict
p1
((lp2
(lp3
Vcomp
p4
aI1
aa(lp5
Vgrama
p6
aI2
aa(lp7
Vunidade
p8
aI3
aa(lp9
Vlitro
p10
aI4
aa(lp11
Vkg
p12
aI5
aa(lp13
Vmetro
p14
aI6
aa(lp15
Vm3
p16
aI7
aa(lp17
Vampola
p18
aI8
aa(lp19
Vcaixa
p20
aI9
aa(lp21
Vkit
p22
aI10
aa(lp23
Vconjunto
p24
aI11
aa(lp25
Vfrasco
p26
aI12
aa(lp27
Vgalao
p28
aI13
aa(lp29
Vrolo
p30
aI14
aa(lp31
Vcilindro
p32
aI15
aatRp33
.ccollections
OrderedDict
p1
((lp2
(lp3
Vunidade
p4
aI80
aa(lp5
Vlitro
p6
aI69
aa(lp7
Vcomp
p8
aI90
aa(lp9
Vcaixa
p10
aI20
aa(lp11
Vgrama
p12
aI81
aa(lp13
Vconjunto
p14
aI17
aa(lp15
Vkit
p16
aI17
aa(lp17
Vmetro
p18
aI29
aa(lp19
Vm3
p20
aI24
aa(lp21
Vampola
p22
aI21
aa(lp23
Vkg
p24
aI45
aa(lp25
Vrolo
p26
aI4
aa(lp27
Vfrasco
p28
aI13
aa(lp29
Vcilindro
p30
aI3
aa(lp31
Vgalao
p32
aI6
aatRp33
.