ccollections
OrderedDict
p1
((lp2
(lp3
Vcomp
p4
aI1
aa(lp5
Vgrama
p6
aI2
aa(lp7
Vunidade
p8
aI3
aa(lp9
Vlitro
p10
aI4
aa(lp11
Vkg
p12
aI5
aa(lp13
Vmetro
p14
aI6
aa(lp15
Vm3
p16
aI7
aa(lp17
Vcaixa
p18
aI8
aa(lp19
Vampola
p20
aI9
aa(lp21
Vfrasco
p22
aI10
aa(lp23
Vconjunto
p24
aI11
aa(lp25
Vkit
p26
aI12
aa(lp27
Vcilindro
p28
aI13
aa(lp29
Vrolo
p30
aI14
aa(lp31
Vgalao
p32
aI15
aatRp33
.ccollections
OrderedDict
p1
((lp2
(lp3
Vgrama
p4
aI129
aa(lp5
Vkg
p6
aI74
aa(lp7
Vkit
p8
aI26
aa(lp9
Vcomp
p10
aI139
aa(lp11
Vunidade
p12
aI120
aa(lp13
Vlitro
p14
aI117
aa(lp15
Vcaixa
p16
aI39
aa(lp17
Vampola
p18
aI34
aa(lp19
Vconjunto
p20
aI27
aa(lp21
Vmetro
p22
aI58
aa(lp23
Vfrasco
p24
aI32
aa(lp25
Vrolo
p26
aI9
aa(lp27
Vm3
p28
aI44
aa(lp29
Vcilindro
p30
aI9
aa(lp31
Vgalao
p32
aI8
aatRp33
.