(lp1
Vfita adesiva autoclave 9 mm x 9 m
p2
aVareia
p3
aVplaca isopor 9 mm
p4
aVdiazepam 9 mg 9 cp b 9
p5
aVbanana
p6
aVgardenal 9 mg 9 cp
p7
aVpolpa cong de frutas canaa caja 9 kg
p8
aVceftriaxona 9 g po sol inj im iv cx 9
p9
aVhemstab ref 9 9 lote 9 validade
p10
aVluva ciriugica est n 9 lt 9
p11
aVlevonorg etinilest 9 caps
p12
aVnutrison 9 energy tetra 9 ml cx c 9 lot 9 fab val
p13
aVextralatex branco neve 9 lt hidracor
p14
aValivium 9 ts 9 mg c 9 comp
p15
aVkit pnld
p16
aVpreservativo nao lubrificado
p17
aVa plasticos saco impr a d ne 9 x 9 x 9 mh
p18
aVremoved cera becker tira facil c 9 lt 9
p19
aVcarbamazepina 9 mg cpr brainfarma
p20
aVpapel a 9 rino rs
p21
aVparaf cortical 9 x 9 mm iol ropm 9
p22
aVproteina texturizada de soja supresoy carne 9 g
p23
aVpilha media c 9 und
p24
aVampicilina 9 mg
p25
aVcilindro de oxig nio de 9 m 9
p26
aVglicosado 9 sol inj 9 ml sist fechado
p27
aVcartilha do ministerio da saude
p28
aVluva cirurgica esteril no 9 9 9
p29
aVkit cor pin corr yam xtz 9 lander
p30
aVaso latex direto 9 testes
p31
aValphagan p col 9 ml
p32
aVcimento sc 9 k cimpor
p33
aVpapel cart o filiper a 9 bc
p34
aVtirreno arla 9 9 l
p35
aVmassa corrida 9 l balde
p36
aVpapel hig big rool 9 x 9 branco
p37
aVplaca em t peq frag ang reto 9 x 9 f iol lote iol 9/9 iol 9/9 ropm 9
p38
aVengov c 9 x 9 cpr
p39
aVoxigenio medicinal cil pp
p40
aVfita kraft 9 sleeve 9 x 9 9 adelbra
p41
aVluva cirurgica esteril n 9 imposto ibpt nacional 9
p42
aVgamax com 9 cpr
p43
aVparaf 9 x 9 cabeca chata phs bicro 9 x 9 mdf
p44
aValmo o
p45
aVcabo flexivel 9 mm 9/9 kv
p46
aVambroxol infantil xpe c 9 ml lote 9
p47
aVmetoclopramida 9 mg ml
p48
aVbaton bastao choc leite
p49
aVoleo diesel b s 9 original
p50
aVpds plus vlt 9 ct c ag 9 cm 9/9 cil cod pdp 9 h marca ethicon
p51
aVfluxon 9 mg c 9 comp neo hosp neo hospitalar
p52
aVporca sext 9/9 unc galv
p53
aVdialine esm platina gl gl 9 x 9
p54
aVsaco p lixo infectante 9 l 9 x 9 pct c 9
p55
aVbaclofeno 9 mg c 9 comp lote 9
p56
aVfolha de isopor 9 mm
p57
aVpasta c grampo plast azul acp
p58
aVsais reidratante oral env
p59
aVesparadrapo impermeavel 9 cm x 9 mt
p60
aVnistatina 9 ui ml sus 9 ml
p61
aVsaco para lixo preto 9 lt
p62
aVkit pnld
p63
aVoxacilina sodica 9 mg inj
p64
aVparoxetina c 9 9 mg
p65
aVdiesel comum
p66
aVkollagenase c cloraf bisn 9 g cx 9
p67
aVovos granja mauricea c 9
p68
aVlustra moveis perfumado 9 ml
p69
aVjogo junta superior c ret
p70
aVargamassa unimassa ac 9 revestimento 9 kg
p71
aVacido urico 9 x 9 ml marca biotecnica lote 9 h 9 a
p72
aVmacaranduba madeira serrada ripa
p73
aVcetoconazol creme 9 g sobral
p74
aVcoentro
p75
aVamoxicilina 9 mg prati l 9 v 9/9
p76
aVletahcide plus bb 9 l
p77
aVprotese cabeca de radio 9 mm lote l 9
p78
aVcreatinina ref 9 9 lote 9 validade
p79
aVsal campeao 9 kg
p80
aVar condicionado tipo split de 9 btu s
p81
aVpapel oficio a 9 9 x 9 9 g copimax
p82
aVcart 9 grs 9 x 9 mm 9 fls canario
p83
aVcefalexina 9 ml ml po o susp oral fr 9 ml
p84
aVovos c 9 und
p85
aVacrysof sa 9 at 9 g ms 9 lote 9 val 9 9
p86
aVpapel oficio a 9 report 9 x 9 c 9 fls
p87
aVoxigenio 9 m 9
p88
aVazitromicina 9 mg ml 9 mg pharlab lote 9
p89
aVoleo de soja soya 9 ml
p90
aVomeprazol 9 mg injet vel
p91
aVtule ilusao nude
p92
aVpapel madeira
p93
aVlaranja pera
p94
aVcefalexina 9 mg 9 ml g
p95
aVmassa corrida latao eucatex
p96
aVpapel oficio a 9 report 9 x 9 c 9 fls
p97
aVoxigenio 9 m 9
p98
aVfurosemida 9 mg ml 9 ml sol inj
p99
aVpino tramontina femea 9 p pote c 9
p100
aVcarrinho metalosa 9 x 9 verm 9 l c 9 un
p101
aVmetronidazol 9 mg generico cprs prati donaduzzi pr
p102
aVtom 9 pt 9 a claris c pl prm 9 tributos incidentes 9 r 9 fonte ibpt prm 9
p103
aVcenouras e nabos frescos ou refrigerados
p104
aVgaze hidrofila 9 cmx 9 m 9 fios stander nataly
p105
aVar comprimido 9 m 9
p106
aVbota p const elastico hawai n 9 9 par
p107
aVsal mimosal 9 kg
p108
aVdexclorfeniramina 9 mg maleato l 9 q 9 f v l 9 q 9 f 9/9
p109
aVgripee 9/9
p110
aViguatemi floral bb 9 l desinfetante liquido
p111
aVdesinfetante novo brilho caravela 9 l
p112
aVrefrigerante lim o peti c 9 l
p113
aValgodao hidrofilo 9 g pct 9
p114
aVcarbono 9 face cx c 9 fls
p115
aVsaco plast transparente 9 x 9 micras
p116
aVsifao univ ssum br 9 astra
p117
aVcimetidina 9 mg cpr g
p118
aVsoro anti a monoclonal 9 ml marca prothemo
p119
aVagua bidestilada cx c 9 amp x 9 ml farmace lt 9 e 9 fab val
p120
aVnitrogenio liq caminhao tanque
p121
aVlevofloxacino 9 mg ml 9 ml
p122
aVescova de robson
p123
aVparacetamol 9 mg fr c 9 ml lote g 9
p124
aVbase do amortecedor
p125
aVcola silicone 9 gr polystic
p126
aVagua destilada 9 ml cx c 9 lote 9
p127
aVbanana
p128
aVluvas em latex
p129
aVfio 9
p130
aVovos bandeja c 9 und
p131
aVhalo 9 mg haloperidol 9 cpr c 9
p132
aVfer n 9 zamac cr contra fech de abrir aba
p133
aVfita dupla face eurocel 9 x 9 sf 9
p134
aVomeprazol 9 mg injetavel cx 9 ampolas cristalia
p135
aVsaco para lixo branco hospitalar 9 lt
p136
aVsoro glicosado 9 s f 9 ml cx c 9 sanob
p137
aVmassa corrida 9 l balde
p138
aVbenzilp benz 9 ui inj 9 ml
p139
aVceftriaxona 9 gr iv cx 9 fa celltriaxon fab cellofarm
p140
aVparafuso latao mq unc 9/9 x 9/9 completo
p141
aVshine dry 9 lt
p142
aVpapel filme
p143
aVactilyse 9 mg cx 9 f a dil 9 ml canu alteplase boehringer
p144
aVnylon 9 9 c ag 9 cm cx 9
p145
aVpapel p e c g 9 mm x 9 mm daru
p146
aVblue amaciante bactericida p roupas 9 lts
p147
aVbiscoito doce maria 9 gr
p148
aValbumina humana 9 9 ml
p149
aVleite em po integral saco 9 g
p150
aVtijolos de lajota com oito furos
p151
aVcelestrat xpe 9 ml uniao quim
p152
aVsapucaia serr em linha 9 m 9/9
p153
aVbase coralservice coralmur 9 lt t
p154
aVarla 9 9 lt
p155
aVsonda de aspiracao traqueal n 9 pct c 9 medsonda
p156
aVdobradica 9 x 9 chumbar
p157
aVcaldo de galinha e carne knor tira c 9
p158
aVflores naturais
p159
aVatadura de crepom 9 cm 9 alg 9 fios polar
p160
aVtransaminase tgo colorimetrico bioclin
p161
aVbobina p ester 9 mm x 9 m vedamax l 9 val 9/9
p162
aVovos brancos bandeja c 9 und
p163
aVatadura de crepom 9 f 9 cm x 9 m pct c 9 lote 9
p164
aVjogo de juntas parcial do motor
p165
aVvitamina c 9 mg f a 9 ml farmace
p166
aVparacetamol 9 mg tylalgin cpr
p167
aVconcentrado amarelo ox t n 9 ml coral
p168
aVreparo
p169
aV9 neuroestimulador implantavel activa pc canal duplo
p170
aVbabymed rosa 9 g cimed
p171
aVatadura crepe 9 cm x 9 m ortoflex
p172
aVjg pastilha freio traseiro
p173
aVcabo duplex 9/9 kv 9 x 9 x 9 mm
p174
aVbatata inglesa da terra
p175
aVficha de fisioterapia
p176
aVhaloperidol 9 mg cx 9 halo c 9
p177
aVcarbamazepina 9 mg c 9 cx 9 comp medley
p178
aVtelhas colonial tipo 9
p179
aValbendazol 9 mg ml susp g rati
p180
aVpinta piso azul gl gl 9 x 9
p181
aVdoce de leite pastoso sem corantes embal c 9 gr marca triangulo
p182
aVcafe nordestino 9 g
p183
aVgel ultrassonografia 9 kg vicpharma
p184
aVvaselina pomada 9 g
p185
aVlorazepam 9 mg l 9 q 9 f v portaria 9/9 b 9
p186
aValcool etilico 9 9 ml ricie
p187
aVneomicina bacit pom nebactrina 9 gr
p188
aVoxigenio 9 m 9
p189
aVcaptopril 9 mg g cx c 9 mario
p190
aVfeijao carioca tipo 9 9 x 9 kg
p191
aVomeprazol 9 mg c 9 fr c dil oprazon
p192
aVesponja de aco c 9 und
p193
aVconj pagao para maternidade 9 par de sapato 9 par de luvas 9 pano de chupeta e 9 lencol de xixi 9 algodao
p194
aVfita adesiva 9 x 9 acrifit transp
p195
aVdetergente concentrado neutro 9 lt
p196
aVfr latex 9 ml marca biotecnica lote 9 h 9 a
p197
aVmaca gala grande kg
p198
aVmetildopa 9 mg sanval tensioval
p199
aVazopt susp oft 9 ml
p200
aVgase rolo 9 x 9 9 fios bio textil bio textil
p201
aVregua lat gel cml h 9 9 mm sav
p202
aVpsf tancredo neves sanit rio consult rio 9
p203
aVoxigenio med em cil 9 m 9 tg 9 na un 9
p204
aVclor cefepima 9 g po p sol inj cx 9 f cefepima cloridrato aurobindo
p205
aVcimento elizabeth cp ii z 9 c 9 kg
p206
aVlidocaina 9 s v amp 9 ml hypocaina
p207
aVjg junta completo
p208
aVesm extralux 9 l cinza medio
p209
aVecofilm col 9 ml latinofar
p210
aVargamassa itatiunga aci 9 kg
p211
aVcimento 9 kg
p212
aVgaze em rolo tipo queijo 9 dobras de 9 cmx 9 m megatex
p213
aVamiodarona 9 mg 9 cp
p214
aVannita 9 mg sus fr 9 ml
p215
aVmetronidazol 9 g 9 mg 9 g creme
p216
aVoxcarbazepina 9 mg c 9
p217
aVdipirona sodica 9 mg comp hosp
p218
aVpapel higienico
p219
aVnebaciderme 9 g pomada mult
p220
aVlamina de bisturi c 9 9 labor
p221
aVparafuso sext 9/9 x 9 c porca
p222
aVovos de galinha
p223
aVfosforo
p224
aVmassa acri 9 l hidrotintas
p225
aVprednisolona fosf sod 9 mg ml 9 ml prati prati donaduzzi
p226
aVluva de procedimento p cx 9
p227
aVvenlaxin 9 mg com 9 cpr
p228
aVatenolol 9 mg cx 9 comp vitamedic
p229
aVarla 9 9 lt
p230
aVdipirona envelope c 9 dipimed n 9
p231
aVpano de prato c 9 ud
p232
aVoleo diesel s 9
p233
aVfecula de mandioca lopes 9 kg qtd 9 un
p234
aV9 ps 9 g aditivo
p235
aVgasolina comum
p236
aVpapel linho tam a 9 c 9 und bco offpaper
p237
aVbio latex fr completo quibasa
p238
aVluva cirurgica n 9 esteril marca mucambo
p239
aVgasolina tipo c no onu 9 cl 9 grp emb ii
p240
aVpapel oficio c 9
p241
aVficha laudo
p242
aVfiltro cj cabine carvao ativado
p243
aVvdrl 9 testes 9 ml lote 9 d 9 validade
p244
aVcaldo arisco galinha 9 x 9 g
p245
aVluva procedimento tam m cx 9 pares medix
p246
aVpastilha sanitaria tri d lavanda 9 g
p247
aVcaldo de galinha 9 x 9 g
p248
aVhidrocortisona gliocort 9 mg po inj novafarma
p249
aVkronel gel ginecologico
p250
aVtampa lateral comp c titan 9/9 pintada s ad
p251
aVneomicina bacitracina 9 g sobral neo
p252
aVcoentro
p253
aVtenoxican 9 mg inj cx 9
p254
aVtenoxicam inj uniao quimica
p255
aVmeia esportiva masculina selene
p256
aVdexa 9 g creme 9 mg g
p257
aVcolesterol liquiform ref 9 9 lote 9 validade
p258
aVtinta esmalte branco gelo kg
p259
aVcafe santa clara 9 g
p260
aVoxigenio 9 m 9
p261
aVbenzilpenicilina 9 cx 9
p262
aVlapis de cor labra grande
p263
aVpapel filipaper casca de ovo branco 9 g fl
p264
aVluva cirurgica de latex 9 maxitex
p265
aVparaf allen s cab inox 9/9 x 9/9 ciser
p266
aVpastilha de freio traseiro
p267
aVovos granja cascavel bd c 9 un
p268
aVar medicinal cil k 9 m 9
p269
aVimpressora lazer samsung sl m 9 w
p270
aVpapel a 9 9 g
p271
aVovos com 9 marca lourdes hortifrut
p272
aVpiso cerbras 9 x 9 pei 9 a neve plote
p273
aVoxigenio 9 mts
p274
aVgnaisse po de pedra 9 x 9 mm
p275
aVleite em po italac int 9 x 9 gr
p276
aVtorta de caro o de algod o sc 9 kg
p277
aVfilme para ultrasom typi i normal upp 9 s 9 mm 9 m cx com 9 sony lote 9
p278
aVsulfato de polimixina b 9 ui l 9 q 9 f v
p279
aVcart 9 grs 9 x 9 mm 9 fls canario
p280
aValgodao 9 9 c ag 9 cm cx c 9
p281
aVrolo de la 9 cm atlas
p282
aVreparo cabecote comp ar wabco vw 9 contellation
p283
aVoxigenio medicinal cil pp
p284
aVbiperideno 9 mg uniao quimica
p285
aVenvelope carta pequeno
p286
aVceftriaxona 9 g iv im s dil cx 9 amplospec
p287
aVmetildopa 9 mg c 9 comp imposto ibpt nacional 9
p288
aValbendazol 9 mg 9 cp
p289
aVsaco para lixo preto 9 l
p290
aVpapel camurca branco art floc
p291
aVmetronidazol gel vaginal 9 mg g
p292
aVagua mineral 9 litros
p293
aVdipirona sodica injetavel cx 9 ampolas
p294
aVcabo flex 9 kv 9 mm corfio pr
p295
aVviapol ecoprimer manta barrica 9 l
p296
aVmacho 9/9 rosca gas
p297
aVpapel oficio a 9 report 9 x 9 c 9 fls
p298
aVblocos receitu rio de controle especial
p299
aVcloreto de sodio solucao 9 c 9 ml fresenius
p300
aVazitromicina 9 mg c 9 comp medquimica medquimica
p301
aVkit andamento titan 9 riffel
p302
aVfiltro bacteriologico umidificador hmef adulto tubo extensor flexivel gvs do brasil
p303
aVglicose liquiform ref 9 9/9 lote 9 validade
p304
aVpilha rayovac media c 9
p305
aVoleo diesel b s 9 comum
p306
aVjogo de cabo de vela de ignicao
p307
aVmetronidazol gel vag 9 mg g
p308
aVferro sinobras 9/9 const barra tributos incidentes 9 r 9 fonte ibpt 9
p309
aVpds ii vlt 9 9 9 cm ps 9 z 9 g marca ethicon
p310
aVureia uv quibasa
p311
aVbutilescopolamina dipirona sodica 9 ml cx 9 amp
p312
aVluva latex ilado tricotada
p313
aVmangote succao 9
p314
aVvassoura piacava vila limpa tam m
p315
aVraio jg trazeiro 9
p316
aVtransferencia de saldo credor de icms
p317
aVpapel oficio
p318
aVpapel oficio 9
p319
aVfita adesiva para autoclave 9 x 9 m missner
p320
aVplaxmatic 9 9 l detergente umectante p roupas
p321
aValbendazol 9 mg c 9 cpr gen
p322
aVesmalte sintetico 9 lt
p323
aVatadura crepom 9 cm pct c 9
p324
aVlampada compacta espiral 9 w golden
p325
aVcoentro mol
p326
aVoleo mineral 9 ml natulab
p327
aVbanana in natura
p328
aVpapel oficio a 9 caixa c 9 resmas
p329
aVoleo diesel b s 9 comum
p330
aVspectaban t col b m fps 9 9 ml
p331
aVclips n 9/9 9 g
p332
aVamortecedor dianteiro
p333
aVcartolina laminada verde
p334
aVciprofibrato 9 mg c 9
p335
aV9 u 9 9 b past freio
p336
aVenoxaparina sodica 9 mg 9 ml cx 9
p337
aVcoloracao panotico rapido conj 9 x 9 ml
p338
aVmiconazol 9 p creme vaginal
p339
aVpapel 9 kg a 9 branco
p340
aVfita adesiva 9 x 9 dupla face 9 adel
p341
aVar medicinal cil k 9 m 9
p342
aVjg lona freio diant tras vw 9 9 9
p343
aVmonarch cart p acrysof iib ms 9 lote 9 val 9 9
p344
aVoxigenio samu
p345
aVplaxmatic 9 9 l detergente umectante p roupas
p346
aVatadura de crepe de 9 cm c 9 neve
p347
aVgoiaba
p348
aVplaxmatic 9 9 l alvejante l quido
p349
aVpadrao placar estampado com 9 cmisas
p350
aVpentasa 9 mg cx 9 cpr mesalazina ferring
p351
aVpapel contact transp 9 cm larg
p352
aVcoentro mol
p353
aVoleo diesel b s 9 comum
p354
aVoxigenio medicinal cil t 9 m 9
p355
aVovo de galinha
p356
aVoxigenio liquido caminh tanque
p357
aVpapel camurca todas as cores
p358
aVluva cirurgica 9 esteril
p359
aVsoro fisiologico 9 9 ml fresenius 9 k 9
p360
aVluva de procedimento m cx 9
p361
aVesparadrapo imp 9 cmx 9 m cremer
p362
aVcopo descartavel copobras 9 ml
p363
aVpapel kraft ouro madeira 9 g m 9 9 x 9 cm
p364
aVcal supercal 9 kg
p365
aVmiconazol 9 loc 9 ml
p366
aVbota elast s cadarco 9 crival
p367
aVocitocina sol inj 9 ui 9 ml iv im
p368
aVoxigenio ppu
p369
aVluva sold 9 mm corr plastik
p370
aVlugol forte 9 ml marca renylab lote 9
p371
aVovos c 9 und
p372
aViquine delanil acril fo 9 lt bco gelo
p373
aVmetildopa 9 mg cpr
p374
aVbota seg elastico 9 linha
p375
aVlacto purga env c 9 comp
p376
aVar comprimido 9 m 9
p377
aVl 9 lona freio mb 9 vw 9/9 fd 9
p378
aVfita adesiva 9/9 mat crepe cor bege
p379
aValgodao em rolo hidrofilo 9 gr marca melhor med
p380
aVpapel guache 9 x 9
p381
aV9 sulfato ferroso 9 mg
p382
aVparafuso 9 f 9
p383
aVclorpromazina gotas 9 mg 9 ml c 9 lote 9
p384
aVocitocina 9 ui inj 9 ml cx 9 oxiton
p385
aVfiltro
p386
aVjunta retificacao valv fiat 9 9 flex sabo
p387
aVtubo esg 9 mm plastubos
p388
aVoxig nio med em cil 9 m 9 9 9 na 9 onu
p389
aVtijolos ceramico 9 furos 9 9 x 9
p390
aVfio de sutura de uso medico hospitalar tipo absorvivel em catgut simples 9 fio de 9 a 9 cm com agulha cilindric
p391
aVampicilina 9 mg caps gen
p392
aVpapel higienico
p393
aVflanela media 9 x 9
p394
aVr 9 planetaria coniflex 9 d
p395
aVcorante amarelo 9 ml globo
p396
aVtec percal aracaju tinto 9 larg 9 alg
p397
aVlaranja
p398
aVsaco p lixo comum 9 l pr
p399
aVfita isolante tigre 9 x 9 mts
p400
aVloratadina 9 mg comprimidos
p401
aVcasinha divertida 9 monte libano
p402
aVluva algodao mesclada pigmento preto
p403
aVsulfametoxazol trimetoprima 9/9 mg cx 9 cpr
p404
aVtinta rende muito 9 lts verde kiwi
p405
aVoxigenio 9 m 9
p406
aVovo medio c 9 sonovo
p407
aVarroz parbolizado
p408
aVginkobiloba 9 mg zydus
p409
aVbio latex pcr 9 ml p 9 testes bioclin
p410
aVranitidina 9 mg ml 9 ml cx c 9 hypofarma
p411
aVpapel filme
p412
aVlevomepromazina 9 mg 9 cp c 9 lote 9 valid 9
p413
aVseringa desc 9 ml c ag ls descarpack cirurgica fernandes
p414
aVevolu o
p415
aVabacaxi
p416
aVcoentro
p417
aVtapete de borracha unicol c 9 pcs linhas ford gm
p418
aVfrioasfalto 9
p419
aVar comprimido cil linde 9 l 9 m 9 vz onu 9 ar comprimido 9 9
p420
aVjg reparo pinca
p421
aVtinta lux luxcril acrilica 9 lts azul p
p422
aVreuquinol 9 mg com 9 cpr
p423
aVsinvastatina sinvaston 9 mg comp sanval
p424
aVpapel a 9 branco
p425
aVheparina sodica 9 ui 9 ml inj sub 9 amp
p426
aVamoxicilina 9 mg susp 9 ml s cx prati prati donaduzzi
p427
aVcarbamazepina 9 mg teuto l 9 f 9/9 v 9/9
p428
aVnidazofarma 9 inj c 9 ml farmace farmace
p429
aVdiesel s 9
p430
aVmetronidazol 9 mg g gel vaginal 9 bg 9
p431
aVarruela lisa inox 9/9
p432
aVbarra de direcao palio 9
p433
aVamilase cinetica cnpg 9 testes 9 ml teste cat 9 9/9 marca labtest imposto ibpt nacional 9
p434
aVpapel a 9 copimax 9 x 9 c 9 fls 9 x 9
p435
aVfluconazol 9 mg ml 9 ml sist fechado
p436
aVbenzilpenicilina benzatina 9 ui
p437
aVkit pnld
p438
aVfardamento profissional
p439
aVverniz sparlack extra marit brilh 9 ml
p440
aVagua bidestilada f a 9 ml isofarma
p441
aVflagass baby gts fr 9 ml
p442
aVcaneta compactor 9 c 9 az
p443
aVmarreta oitavada 9 g forjada ref 9/9
p444
aVhidrocortisona 9 mg
p445
aVdivisoria em madeira naval semi oca com revestimento laminado na cor cinza
p446
aVservico de suporte tecnico operacional e
p447
aVpastilha freio fiat 9 rcpt 9 trw
p448
aVvidro incolor 9 mm
p449
aVfiltro
p450
aVmastro em alum nio com ponteira cromada acompanhado de 9 base nica em madeira
p451
aVamoxicilina 9 mg susp 9 ml s cx prati prati donaduzzi
p452
aVsab o em p guarani sach 9 x 9 g
p453
aVagua mineral 9 litros
p454
aVovo bandeja c 9 unds
p455
aVfita isolante 9 m display amanco
p456
aValcool gel 9 9 litros
p457
aVcabo flexivel 9 mm c 9 m megacampos
p458
aVcoentro verde
p459
aVjogo de pastilhas do freio diant
p460
aVhyplex b inj cx 9 amp complexo b
p461
aVovos c 9 und
p462
aVpao tipo hot dog pct 9 g
p463
aVoxig nio med cil om 9 l
p464
aVfeijao macassar 9 kg
p465
aVoxig nio med cil om 9 m 9 onu 9 9 9 9
p466
aVluva soldavel 9 mm krona
p467
aVeva em folha c 9
p468
aVrapadura
p469
aVcanela
p470
aVrequeij o cremoso
p471
aVatadura de crepom 9 cm x 9 9 fios c 9
p472
aVtransferencia de saldo credor de icms
p473
aVequinos 9 ma 9 kg
p474
aVaddera d 9 sol or fr gts 9 ml
p475
aVpaver brick 9 cm natural 9 mpa
p476
aVcap soldavel 9 mm tigre
p477
aVgrampo 9 com 9
p478
aVtijolos 9 furos
p479
aVesmalte sintetico latao
p480
aVversatil clor bd 9 kg
p481
aVampicilina 9 g c 9 gen
p482
aVoxigenio liquido caminh tanque
p483
aVclips niquelado mat metal tamanho 9/9
p484
aVatadura crepom 9 cm pct c 9
p485
aVluva de cromo cano curto tributos incidentes 9 r 9 fonte ibpt
p486
aVcaldo de galinha constitu do basicamente de
p487
aVomeprazol 9 mg injetavel cx 9 ampolas oprazon
p488
aVoxido nitroso cil linde 9 l 9 kg vz onu 9 oxido nitroso comprimido 9 9 9
p489
aVpapel a 9 9 x 9 c 9 fls report
p490
aVw colcimentcolaintcinzaac 9 kgplh
p491
aVbatata inglesa
p492
aVdermaid locao oleosa corp 9 ml do 9
p493
aVatadura de crepom 9 cm x 9 9 fios c 9 imposto ibpt nacional 9
p494
aVpapel dobradura espelho brilho 9 x 9
p495
aVdiazepam 9 mg 9 cp b 9
p496
aVpapel grau cir ph 9 mmx 9 mt
p497
aVceftriaxona sodica 9 g inj amp g
p498
aVtubo pvc 9 mm pn 9 c 9 mts er met
p499
aVatadura de crepom 9 cm x 9 9 fios c 9
p500
aVfosforo
p501
aVchuchu
p502
aVtecido tnt cor div 9 x 9 m 9 p polipropilento
p503
aVcartolina comum branca
p504
aVtinta esm sec rap 9 ml branco
p505
aVnoex 9 mcg c 9 doses
p506
aVoxigenio ppu
p507
aVlava pisos
p508
aVsulfato ferroso 9 mg c 9 comp
p509
aVcoloracao panotico rapido conj 9 x 9 ml
p510
aVporta em madeira massaranduba
p511
aVpapel lencol 9 x 9 cm saporro
p512
aVfiltro
p513
aVtubo plastubos agua sold pb de 9 mm
p514
aVdecnazol 9 mg c 9 comp pharla pharlab hosp
p515
aVveda bem impermeabilizante azul 9 lt
p516
aVjg de pcs do elemento
p517
aVmetformina 9 mg 9 cp
p518
aVterno completo kgs
p519
aValcool 9 c 9 litros
p520
aVhistamin liq 9 ml sabor cereja 9
p521
aVpapel a 9 9 9 9 g amarelo
p522
aV9 amitripitilina 9 mg comprimido
p523
aVovos de galinha emb c 9 und
p524
aVvarao ferro 9/9 sinobras 9 kg 9 mm ca 9 9
p525
aVloratadina 9 mg 9 bl x 9 comp cx c 9 comp
p526
aVarmacao 9 x 9 nuclear tributos incidentes 9 r 9 fonte ibpt
p527
aVveja multiuso original 9 ml
p528
aVcimento endodontico sealer 9
p529
aVpapel grau cirurgico medio 9 mm x 9 m lote 9
p530
aVtransferencia de saldo credor de icms
p531
aVmacarrao tipo espaquete 9 g
p532
aVfaixa em impress o digital lona 9 gr
p533
aVcetoconazol 9 mg comp prati donaduzzi
p534
aVdreno penrose n 9
p535
aVondansetrona 9 mg 9 ml sol inj cx 9 ampolas
p536
aVextralux 9 l branco
p537
aVcompressa 9 x 9 9 fios c 9 esteril
p538
aVpolivitamina gotas dt validade 9
p539
aVacebrofilina 9 mg ad 9 ml
p540
aVretentor traseiro
p541
aVoleo spray white lub anti ferr 9 ml
p542
aVceram eliz 9 a cristal vermelho
p543
aVtijolo 9 furos
p544
aVferro 9 mm 9/9 reto
p545
aVsertralina 9 mg aurobindo l xt 9 a f 9/9 v 9/9
p546
aVnovo codigo de processo civil comparado e anotado 9 edicao
p547
aVpolivitamina solucao oral natulab
p548
aVlubrax top turbo 9 w 9 9 l
p549
aVcompexo b liquido fr 9 ml medqu
p550
aVazitromicina 9 mg susp fr 9 ml pharlab
p551
aVtijolos de 9 furos 9 x 9 x 9
p552
aVvalproato sd 9 mg ml 9 ml c 9
p553
aVhioscina dipirona 9 mg cx 9 comp pharlab
p554
aVlinha 9 x 9
p555
aVkit pnld
p556
aVartelac col 9 ml
p557
aVanel
p558
aVsuxametonio 9 mg marca blau
p559
aVbutilbrometo escop 9 mg ml amp g
p560
aVsaco para lixo branco hospitalar 9 lt
p561
aVpiso form 9 x 9 bandeirante cz a 9 9 m 9
p562
aVkit embreagem fiorino 9/9 fire
p563
aVneutrogena hid corporal 9 ml
p564
aVcolesterol monoreag liq estavel 9 ml bioclin
p565
aVoxigenio medicinal cil t 9 m 9
p566
aVpapel toalha c 9 caprice
p567
aVcimento elizabeth
p568
aVcutenox sod 9 mg 9 ml c 9 seringas biochimico
p569
aVfurosemida 9 mg 9 ml l 9 q 9 f v
p570
aVtinta lux luxcril acrilica 9 lt br neve
p571
aVcp ii z 9 cimpor uso geral saco 9 kg
p572
aVsoro fisiologico 9 sist fec 9 ml
p573
aVnitrofurasona pomada prati l 9 v 9/9
p574
aVkit urina 9 areas lote 9 validade
p575
aVmacarrao tipo espaquete 9 g
p576
aVrefeicoes
p577
aVkolagenase c cloraf pom 9 gr f
p578
aVmilho verde
p579
aVpapel higienico personal lavanda 9 r 9 m
p580
aVcopo descart vel caixa c 9 unid copobras
p581
aVleite em po italac 9 g
p582
aVgama gt lote 9 validade
p583
aVcartolina guache fosco 9 x 9 cores vmp
p584
aVgrelha quadrada br 9 x 9 cm gr 9
p585
aVcaneta alta rotacao
p586
aVleite em p
p587
aVluva de procedimento p cx c 9 embramac
p588
aVoximetro pulso de dedo md 9 c 9 marca choice mmed lote 9
p589
aVtransferencia de saldo credor de icms
p590
aVcj potes de vidro 9 pcs
p591
aVpastilha freio fiat 9 p 9 lonaflex
p592
aVparafuso 9 x 9
p593
aVveste para vel rio feminino
p594
aVcartucho hp 9 c 9 bb preto
p595
aVcreatinina enzimatica lote 9 validade
p596
aVsoro fisiolog 9 9 ml
p597
aVsais p reidratacao oral envel natulab
p598
aVrpr bras estab p vdrl 9 x 9 ml 9 testes
p599
aValcool 9 gel 9 ml vic pharma
p600
aVfita 9 x 9 carvalho 9 m r
p601
aVsoro ringer lactato 9 ml
p602
aVchuchu
p603
aVflocao sao braz 9 x 9 g
p604
aVkit contrato 9 am
p605
aVovos c 9 und
p606
aVreps estamparia chitao
p607
aVbot o bonor ny pol 9/9 9 pto c 9 und
p608
aVarroz cacarola parbolizado 9 kg
p609
aVparacetamol 9 mg ml gts 9 ml
p610
aVfixador p raio x automatico p 9 lt cx papelao
p611
aVpiso cer porto rico 9 x 9 classic cinza atom 9
p612
aVoleo diesel b s 9
p613
aVturbo massa acrilica 9 kg bd
p614
aVfarelo de soja 9 kg
p615
aVripa mista
p616
aVleite em po integral italac 9 x 9 g
p617
aVluva cirurgica esteril n 9 c inmetro antiderrapante cx c 9 marca maxitex
p618
aVoleo dulub hidraulico 9 9 lt
p619
aVluva rosc correr 9/9 tigre
p620
aVclonazepam 9 mg c 9 cpr s zilepam b 9 geolab go
p621
aVfosforo
p622
aVcimento cpii z 9 rs nbr 9 nbr 9
p623
aVsorda preta
p624
aVanel
p625
aVneomicina bacitracina pomada 9 g lote 9/9
p626
aVfosfatase alcalina liquiform ref 9 9/9 lote 9 validade
p627
aVgasolina comum
p628
aVbateria dtz 9
p629
aVtomate
p630
aValavanca seldin jogo adulto c 9
p631
aVrefrigerante 9 lt
p632
aVoxigenio 9 m 9
p633
aVoxigenio med em cil 9 m 9 tq 9 na 9 onu
p634
aVkit polimento de amalgama
p635
aVcilindro de oxig nio de 9 m
p636
aVpapel oficio a 9 9 x 9 c 9 fls
p637
aVmetformina 9 mg cpr
p638
aVesm sint gl marrom conhaque hidro
p639
aVcarne com osso
p640
aVpapel a 9 rino rs
p641
aVbeterraba
p642
aVsaco 9 lts infectante c registro anvisa
p643
aVbrometo de ipatropio 9 9 ml lote 9 l 9 valid 9
p644
aVcurva soldavel 9 mm 9
p645
aVfita adesiva pvc 9 x 9 color pp 9 pp 9 eurocel
p646
aVpapel higienico c 9
p647
aVfentanila citr 9 ug ml 9 ml hipolabor a 9
p648
aVbolacha crean ckacer 9 gr
p649
aVbilirrubina colorimetrica 9 9 testes 9 9 ml teste cat marca labtest
p650
aVliex soft 9 l amaciante a base de quatern rio
p651
aVregua moldura cml h 9 9 mm fen
p652
aVmebendazol susp und
p653
aVcx gordura tigre dn 9
p654
aVhidrocortisona 9 mg injetavel cx 9 ampolas
p655
aVamortecedor tras esq
p656
aVpapel camurca todas as cores
p657
aVfosfato mon sulf dissodico lote 9 valid 9
p658
aVclaril 9 ml col
p659
aVheparina sodica 9 ui sol inj
p660
aValgodao hidrof 9 g
p661
aVfita adesiva crepe 9 mm x 9 mm imposto ibpt nacional 9
p662
aVbanana
p663
aVtinta luxcril 9 l azul profundo lux
p664
aVprometazina 9 mg c 9 cristalia sp
p665
aVoleo diesel b s 9 no onu 9 cl 9 grp
p666
aVmadeira mirindiba serrada em tabua
p667
aVluvas cirurgicas 9
p668
aVacido urico liquiform ref 9 9/9 lote 9 validade
p669
aVcimento 9 kg mizu cp ii
p670
aVelemento filtro
p671
aVoxigenio samu
p672
aVcimento de 9 kgs
p673
aVoxigenio medicinal cil t 9 m 9
p674
aVcloridrato de ciprofloxacino 9 mg prati donaduzzi
p675
aVestagio supervisionado o cortez
p676
aVovo de galinha
p677
aVcabo multiplex mono 9 mm
p678
aVpd 9 pastilha freio ecosport fiesta pd 9
p679
aVaceclofenaco 9 mg creme
p680
aVformula didatico polipac
p681
aVhidrocortisona 9 mg creme 9 g uniao quimica
p682
aVflocao sao braz 9 x 9 g
p683
aVovo de galinha
p684
aVgrafite mina 9 mm hb
p685
aVvinagre de alcool embal c 9 ml
p686
aVoleo diesel bs 9
p687
aVmdf branco tx 9 f 9 x 9 x 9 mm
p688
aVficha de acompanhamento pedag do diretor
p689
aVfiltro
p690
aVmetronidazol 9 mg gel vag apl bisn 9 gr prati donaduzzi
p691
aVbilirrubina ref 9 lote 9 validade
p692
aVtijolo de ceramica 9 furos
p693
aVtecido brim prof 9 algodao amarelo
p694
aVcolesterol mon 9 ml bioclin lotes 9 9 9
p695
aVafolic 9 mg c 9 comp hosp natulab hosp
p696
aVbaclofeno 9 mg c 9 comp teuto teuto
p697
aVpds ii vlt 9 9 9 cm ps 9 z 9 g marca ethicon
p698
aVescopolamina dipirona sodica inj
p699
aVluva cir esteril 9
p700
aVcasa grande de atividade 9 monte libano
p701
aVsulfa trimetropina 9 ml sobral
p702
aVgoiaba
p703
aValmondegas ao molho de tomate 9 g
p704
aVoxigenio ppu
p705
aVmeclin 9 mg c 9 comp
p706
aVatropina 9 mg sol inj amp 9 ml isofarma p
p707
aVacrysof sa 9 at 9 g ms 9 lote 9 val 9 9
p708
aVsal campeao 9 kg comum iodado
p709
aVlidocaina a 9 s v 9 ml gen cx 9
p710
aVfluoxetina 9 mg 9 caps
p711
aVbombom sortidos garoto 9 gr
p712
aVcenoura
p713
aVmangueira cristal 9 x 9 mm plastiman
p714
aVar cond split 9 btus kos 9 fc princess komeco
p715
aVduramais 9 l branco neve lux
p716
aVfita adesiva autoclave 9 mm x 9 m
p717
aVcaptopril 9 mg cpr
p718
aVsuco de fruta
p719
aVsaco lixo ultraplast 9 l preto
p720
aVtubo sul minas pvc sold 9 mm 9 mt
p721
aVsais para reidratacao oral 9 g lt 9 d
p722
aVnylon mon preto 9 9 c ag 9/9 9 cm cx c 9
p723
aVtornozeleira nylon emborrachado 9 kg
p724
aVpiperacilina sod 9 g tazobactam sodico 9 g po p sol inj
p725
aVprometazina 9 mg comp teuto
p726
aVsab o em p guarani sach 9 x 9 g
p727
aVsaco p lixo 9 lt dona limpa
p728
aVdipirona 9 mg c 9 comp greenpharma greenpharma
p729
aVclindamicina 9 mg fosfato item generico l aa 9/9 q 9 f v
p730
aVbolo sort kg
p731
aVmetronidazol 9 mg comp gen
p732
aVjunta tpa valvula
p733
aVoxigenio 9 m 9
p734
aVmassa pva hidracor balde 9 kg
p735
aVcp ii z 9 cimpor uso geral saco 9 kg
p736
aVdiesel s 9
p737
aVcefalexina 9 mg comp gen
p738
aVelemento
p739
aVovos de galinha
p740
aVf trigo esp r branca 9 x 9 kg c ferm
p741
aValface crespa
p742
aVcolesterol hdl enzimatico 9 testes 9 ml teste cat 9 9 marca labtest imposto ibpt nacional 9
p743
aVdiazepam 9 mg cx 9 comp b 9
p744
aVtinta acril pintapiso 9 lt cz medio coral
p745
aVacucar
p746
aVluva procedim top quality tam p 9 un medix
p747
aVtriglicerideo enzimatico c 9 testes lt 9
p748
aValmotolia plast bico reto 9 ml j prolab l 9 val indet
p749
aVbotina de seguranca confecc em couro n 9
p750
aVdexametasona 9 mg inj
p751
aVsyphilis ice c 9 t lote d 9 marca diasorin
p752
aVoxigenio liquido caminh tanque
p753
aVfolha eva 9 x 9 lisa
p754
aVluva esteril n 9
p755
aVestriol creme vaginal 9 mg 9 g
p756
aVeletroduto corrugado 9 mm 9 mt amarelo
p757
aVceftriaxona amplospec 9 g f a biochimico
p758
aVextrato de tomate 9 g
p759
aVespironolactona 9 mg c 9 comp hip hipolabor hosp
p760
aVmetronidazol sol a 9 9 ml c 9 gen
p761
aVar med cil 9 m 9 om 9 l onu 9 na 9 9
p762
aVfio 9
p763
aValgodao hidrofilo 9 gr
p764
aVvitamina k inj im
p765
aVomeprazol 9 mg
p766
aVbenzilpenicilina 9 ui im
p767
aVciprofloxacina 9 mg 9 ml ciprobacter cx 9
p768
aVbanana prata
p769
aVglicose monoreagente quibasa
p770
aVmargarina produzida excl de gordura vegetal adicao de sal com gordura trans embal c 9 gr marca deline
p771
aVmetildopa 9 mg cx 9 comp g
p772
aVgasolina comum
p773
aVoleo 9 w 9 9 l brutu
p774
aVtubo de latex n 9 pct c 9 m 9 r latex lote 9
p775
aVcano tubo de 9 esgoto
p776
aVhidroxido de aluminio 9 ml sobral
p777
aVmanual de direito civil volume unico 9 ed 9
p778
aVdimorf 9 mg ml inj
p779
aVvinagre de alcool para culinaria embal c 9 ml
p780
aVsaco para lixo preto 9 lt
p781
aVbrita 9
p782
aVomeprazol 9 mg 9 ml dil cx 9 f a blausiegel
p783
aVfluconazol 9 mg cmp medqu
p784
aVbucha fixdura d 9 fischer benfixa
p785
aVibuprofeno xpe inf ibuprotrat 9 ml
p786
a.