(lp1
Vceftriaxona 9 g po sol inj im iv cx 9
p2
aVoxigenio 9 m 9
p3
aVmetronidazol 9 mg c 9 comp imposto ibpt nacional 9 
p4
aV clor cefepima 9 g po p sol inj cx 9 f cefepima  cloridrato aurobindo
p5
aVgaze em rolo 9 fios biotextil
p6
aVplaxmatic 9 9 l alvejante l quido
p7
aVoxig nio med  cil om 9 l
p8
aVthinner galao
p9
aVjg reparo pinca
p10
aVar comprimido 9 m 9
p11
aVsulfato ferroso 9 ng comp  lt 9 f 9 m
p12
aVkit cor pin corr hda nxr 9 bros premium
p13
aVtinta extralux esm sint 9 l azul del rey 9 lux
p14
aVnitrofurantoina 9 mg cx 9 caps gen 
p15
aVatadura de crepom 9 cm x 9 9 fios c 9
p16
aVovo branco medio 9 und
p17
aVsulfa trimetoprima 9 ml amp neo quimica 
p18
aVlubrax top turbo 9 w 9 9 l
p19
aVmilho verde em conserva com 9 kg
p20
aV gua sanit ria 9 lt
p21
aVomeprazol 9 mg injetavel cx 9 ampolas cristalia 
p22
aVcomplexo b im iv inj 9 ml amp
p23
aVatropina 9 mg sol inj amp 9 ml isofarma p
p24
aVextrato de tomate 9 g quero
p25
aVoxigenio 9 mts
p26
aVoxigenio medicinal cil t 9 m 9  
p27
aVgiranda cx 9 tiros ouro
p28
aVluva de procedimento m cx 9
p29
aVnebaciderme 9 g pomada mult
p30
aVagulha desc 9 x 9 9 und
p31
aVselador acrilico iquine delanil 9 l
p32
aVextralatex verde limao 9 l
p33
aVprimax dt 9 lt
p34
aVgraxa chassis golden 9 9 kg
p35
aVbandeja de ovos c  9 und
p36
aVesperson n pomada 9 gr
p37
aVcimento cimpor cpii z 9 sc 9 kg
p38
aVbisc  c  cracker vitarella trad 9 g
p39
aVcimento 9 kg zebu cinza
p40
aVtinta acril pintapiso 9 lt cz medio coral
p41
aVbiscoito doce maria 9 gr
p42
aVpolpa cong de frutas canaa caja 9 kg
p43
aVfosforo maco c  9 cx
p44
aVestriol creme vaginal 9 mg 9 g
p45
aVachocolatado em po 9 g
p46
aVlevonorg etinilest 9 caps
p47
aVomeprazol 9 mg injetavel cx 9 ampolas oprazon 
p48
aVoxigenio ppu
p49
aVcomplexo b amp im iv l 9 q 9 f  v 
p50
aValivium 9 ts 9 mg c 9 comp 
p51
aVkit contrato 9 am
p52
aVsaco para lixo branco hospitalar 9 lt
p53
aVcal extra massa 9 kg
p54
aVenalapril 9 mg 9 cp
p55
aVdiazepam 9 mg 9 cp b 9 
p56
aVliex soft 9 l amaciante a base de quatern rio
p57
aViquine delanil acril fo  9 lt bco gelo
p58
aVfrillon 9 9 x 9 mt acrilon
p59
aVbalsamo bengue gel 9 g
p60
aVsaco p  lixo infectante 9 lts
p61
aVfilme para ultrasom typi i normal upp 9 s 9 mm 9 m cx com 9 sony lote 9 
p62
aVcer 9 x 9 icapui bco a cx 9 m cerbras
p63
aVmiconazol 9 mg g cr  vag 9 g
p64
aVmargarina produzida excl  de gordura vegetal adicao de sal com gordura trans embal  c 9 gr marca deline
p65
aVtubo de latex n  9 pct c  9 m 9 r latex lote 9 
p66
aVoxigenio 9 m 9
p67
aVoxigenio med em cil 9 m 9 tg 9 na un 9
p68
aVdiosmin 9 mg cx 9 comp
p69
aVduovent aer fr 9 ml
p70
aVconjunto para circulacao extracorporea neonato
p71
aVpapel grau cirurgico 9 cm x 9 mt imposto ibpt nacional 9 
p72
aVfarelo de soja 9 kg
p73
aVoxido nitroso cil linde 9 l 9 kg vz onu 9 oxido nitroso  comprimido 9 9 9
p74
aVoxigenio med cil linde 9 l 9 m 9 vz onu 9 oxigenio  comprimido 9 9 9
p75
aVparoxetina 9 mg c 9 cx  9 comp aurobindo pharma 
p76
aVarla 9 9 lt
p77
aVoxigenio medicinal cil t 9 m 9
p78
aVcaldo de carne galinha 9 x 9 gr knnor
p79
aVoxigenio medicinal cil pp  
p80
aVfr latex 9 ml marca biotecnica lote 9 h 9 a
p81
aVmetformina 9 mg cx 9
p82
aVshine dry 9 lt
p83
aVveda bem impermeabilizante azul 9 lt
p84
aVdoce de leite pastoso sem corante embal  c  9 gr marca triangulo
p85
aVtriglicerideo enzimatico c 9 testes lt 9
p86
aVibuprofeno 9 mg cpr teuto hospitalar 
p87
aVcopo desc copobras transp 9 ml
p88
aVsustrate c 9 cp
p89
aVpapel grau cir ph 9 mmx 9 mt
p90
aVfita isolante tigre 9 x 9 mts
p91
aVpredcort 9 mg c 9 comp vitapan 
p92
aVcoralar acr gl 9 l branco
p93
aVnistatina creme vag  aplic  9 g
p94
aVcafe santa clara 9 g
p95
aVagua bidestilada f a 9 ml isofarma 
p96
aVannita 9 mg sus fr 9 ml
p97
aVondansetrona 9 mg 9 ml sol inj cx 9 ampolas
p98
aVkit estabilizador diant 9
p99
aVovos granja mauricea c 9
p100
aVjg lona d t 9/9 dm 9 dna 9 9 9
p101
aVsab o em p guarani sach 9 x 9 g
p102
aVcopo descart vel caixa c  9 unid copobras
p103
aVoxigenio 9 m 
p104
aVomeprazol 9 mg comp lt 9 i 9
p105
aVpastilha sanitaria disoflor lavanda 9 g
p106
aVceftriaxona 9 g iv im s dil cx 9 amplospec 
p107
aVatad  de crepom 9 cm c 9
p108
aVacrysof sa 9 at 9 g ms 9 lote 9 val 9 9 
p109
aVclonazepam 9 mg c 9 cpr s zilepam b 9 geolab go 
p110
aVpapel higienico angel soft 9 x 9 9 m
p111
aVagua sanitaria cx c 9
p112
aVdexametasona inj 9 mg ml 9 ml cx c  9 lote t 9/9
p113
aVtoxoplasmose igm atraves da metodologia elisa kit
p114
aVpropranolol 9 mg 9 cp
p115
aVfurosemida 9 mg inj c 9 amp gen hosp  teuto hospitalar 
p116
aVcarrinho metalosa 9 x 9 verm 9 l c 9 un
p117
aVcreme protetor solar fps 9 9 l
p118
aVcilindro de oxig nio de 9 m 9
p119
aVluva procedim top quality tam p 9 un medix 
p120
aVjg pastilha freio traseiro
p121
aVhidrocortisona 9 mg c 9 inj
p122
aV levomepromazina 9 mg comp cristalia lote 9
p123
aVoxigenio 9 m 9
p124
aVdipirona 9 mg apres  cx c 9 cpr sobral pi 
p125
aVpapel oficio c 9
p126
aVkit papa nicolau tam m
p127
aVgamax com 9 cpr
p128
aVolcadil 9 mg c 9 cpr
p129
aVoxig nio med  em cil  9 m 9 9 9 na 9 onu
p130
aVmacarrao tipo espaquete 9 g
p131
aVpapel oficio a 9 report 9 x 9 c 9 fls
p132
aVluva de procedimento p cx 9
p133
aVovos de galinha emb c 9 und
p134
aVoxigenio medicinal cil t 9 m 9  
p135
aVarroz tipo 9 parborizado 9 x 9 kg
p136
aVranitidina 9 mg 9 cp
p137
aVpintalar 9 lt areia iquine
p138
aVagua bidestilada f a 9 ml isofarma 
p139
aVcomplexo b amp im iv l 9 q 9 f  v 
p140
aVmassa pva hidracor balde 9 kg
p141
aVtirreno arla 9 9 l
p142
aVpilha alcalina pequena aa lr 9   cartela c  9 und
p143
aVsulfametoxazol trimetoprima 9/9 mg cx 9 cpr
p144
aViquine dialine esm 9 l cinza medio bri 
p145
aVteicoplanina 9 mg koplan cx 9 f a dil novafarma
p146
aVhf ovo bco gd pvc bdj 9 x 9 9 und
p147
aVpapel grau cirurgico medio 9 mm x 9 m lote 9 
p148
aVatadura crepom 9 x 9 9 fios pct 9 rls biote 
p149
aVtinta esmalte branco gelo kg
p150
aVoleo hidraulico 9 c  9 lt
p151
aVagua bidestilada cx c 9 amp x 9 ml farmace lt 9 e 9 fab  val 
p152
aVpapel grau cirurgico 9 mmx 9 m
p153
aVcetoconazol dip betamet pom 9 g g 
p154
aVamitriptilina 9 mg via oral cpr brainfarma 
p155
aVf trigo esp  r  branca 9 x 9 kg c  ferm 
p156
aVbolacha crean ckacer 9 gr
p157
aVdexametasona 9 mgg bis 9 g dt validade 9
p158
aVcimento sc 9 k cimpor
p159
aV9 s 9/ 9/e   kit alarme
p160
aVcaptopril 9 mg cprs sanval 
p161
aVthinner galao 9 lt 9
p162
aVequinos 9 ma 9 kg
p163
aVglyvenol 9 mg drg cx 9 bl x 9
p164
aVomeprazol 9 mg 9 ml dil  cx 9 f a  blausiegel 
p165
aVlacto purga env c 9 comp 
p166
aVjg pastilha freio
p167
aVovos c 9 und
p168
aVsulfato ferroso 9 mg c 9 comp
p169
aVargamassa quart  aci 9 kg
p170
aVcefalexina 9 mg c 9 cpr teuto teuto 
p171
aVesm extralux 9 l cinza medio
p172
aVsal mimosal 9 kg
p173
aVar medicinal cil k 9 m 9  
p174
aVcoentro acond  g
p175
aVluva de procedimento p cx 9
p176
aVflocao sao braz 9 x 9 g
p177
aVlapis grafite n 9 sem ponteira pacote c 9 und
p178
aV9 cola branca fix 9 g polycart
p179
aVsaco p  lixo comum 9 l pr
p180
aVlencol papel hosp 9 x 9 mts creme recicl
p181
aVcaptopril 9 mg cpr
p182
aVmetformina 9 mg 9 cp
p183
aVcefalexina 9 ml ml po o  susp oral fr 9 ml
p184
aVpelicula g 9 9 mts chacoal grafite flex 
p185
aVgaze queijo 9 f 9 mts clean
p186
aVfita adesiva autoclave 9 mm x 9 m                 
p187
aVpapel oficio a 9 report 9 x 9 c 9 fls
p188
aVgaze hidrofila 9 cmx 9 m 9 fios stander nataly
p189
aVsabonete infantil c 9
p190
aVcabergolina 9 mg ct 9 fr c  9 cp
p191
aVtecido tnt cor div 9 x 9 m 9 p polipropilento
p192
aVfluxon 9 mg c 9 comp neo hosp neo hospitalar 
p193
aVcaldo knorr carne cxa 9 x 9 9 g
p194
aVsal campeao 9 kg comum iodado
p195
aVcimento portland composto apodi cp ii e 9 9 kg 
p196
aVcoloracao panotico rapido conj  9 x 9 ml
p197
aVtintas lux duramais bd 9 l branco gelo
p198
aVhidralazina 9 mg ml cx 9 amp
p199
aVoxigenio med cil linde 9 l 9 m 9 vz onu 9 oxigenio  comprimido 9 9 9
p200
aVsaco para lixo branco hospitalar 9 lt
p201
aVbarra chata 9/9 x 9/9 a 9 9 m
p202
aVtinta luxcril 9 l branco gelo lux
p203
aVoxig nio med  em cil  9 m 9 9 9 na 9 onu
p204
aVcafe nordestino 9 g
p205
aVsab o em p guarani sach 9 x 9 g
p206
aVnutrison 9 energy tetra 9 ml cx c 9 lot 9 fab  val 
p207
aVmargarina vegetal 9 g
p208
aVextrato de tomate 9 g
p209
aVpapel toalha c 9 caprice 
p210
aVglp em botijao de 9 kg
p211
aVkit pnld
p212
aValcool gel 9 9 litros
p213
aVdexametasona 9 mg ml amp x 9 ml cx 9 amp
p214
aVceftriaxona 9 gr iv im s dil cx  9 f a biochimico 
p215
aVargamassa itatiunga aci 9 kg
p216
aVlapis hidrocor c 9 neopen compactor
p217
aVextralux 9 l branco
p218
aVmetronidazol gel ginecologico 9 mg 9 g
p219
aVcj potes de vidro 9 pcs
p220
aVdorene 9 mg cps 9 x 9 c 9 etico pn
p221
aVpapel a 9 9 g
p222
aVfenocris 9 mg fenobarbital amp b 9 
p223
aVliex 9 9 l detergente neutro uso geral
p224
aVglicose 9 f a 9 ml isofarma 
p225
aVvitamina c 9 mg f a 9 ml farmace 
p226
aVmetformina 9 mg 9 cp
p227
aVtinta lux luxcril acrilica 9 lts  azul p
p228
aVatadura de crepom 9 f 9 cm x 9 m pct c  9 lote 9
p229
aVcal supercal 9 kg
p230
aVoxigenio 9 m 9
p231
aVfita isolante 9 m display amanco
p232
aVpapel sulfite a 9 bco c 9 fls
p233
aVpapel a 9 copimax 9 x 9 c 9 fls 9 x 9
p234
aVhyplex b inj cx 9 amp complexo b 
p235
aVtinta rende muito 9 lts ceramica
p236
aVsabao em po 9 g c 9 und mr marilux
p237
aVliex mix 9 kg detergente em p p  lavagem de tecidos
p238
aVnimesulida 9 mg cx 9 comp  vitamedic 
p239
aVversatil clor bd 9 kg
p240
aVfixador p raio x galao c  9 litros p preparar 9 l marca hexa fotoq
p241
aVsaco para lixo branco hospitalar 9 lt
p242
aVlencol descartavel de papel em rolo 9 x 9 m dumbo marca sapporo
p243
aVdepakote er 9 mg 9 cpr c 9 
p244
aVlidocaina 9 s v cx c 9 f a
p245
aVconj pagao para maternidade  9 par de sapato  9 par de luvas  9 pano de chupeta e 9 lencol de xixi  9 algodao
p246
aVcabo flexivel 9 mm c 9 m megacampos
p247
aVambroxol xarope 9 ml 9 ml cx 9 fr 9 ml
p248
aVhioscina composta sol inj  c 9 imposto ibpt nacional 9 
p249
aVmiconazol creme vaginal 9 g prati donad
p250
aVdiazepan 9 mg cx 9 comp b 9 santisa
p251
aValmondegas ao molho de tomate 9 g
p252
aVpapel chamex mult a 9 c 9 fls 9 x 9
p253
aVbiperideno 9 mg 9 cp c 9 
p254
aVcompexo b liquido  fr 9 ml medqu 
p255
aVmeropenem 9 g c 9 fa generico abl antibioticos do bras 
p256
aVsolvente natrielli gl 9 lt
p257
aVgaze rolo 9 x 9 9 f std
p258
aVdiazepam 9 mg 9 cp b 9 
p259
aVkit faco 9 mm laureate lote 9 h val 9 9 
p260
aVcompressa 9 x 9 9 fios c 9 esteril
p261
aVcarbamazepina 9 mg cx 9 comp c 9 uniao quimica
p262
aVar comprimido 9 m 9
p263
aVmetilergometrina 9 mg f a 9 ml uniao qu
p264
aVcolorifico dona clara 9 g
p265
aVduramais 9 l branco neve lux
p266
aVjg pastilha freio
p267
aVtinta decora sb 9 lts branco gelo coral
p268
aVoxigenio 9 m 9
p269
aVnorfloxacino 9 mg cpr
p270
aVcx gordura tigre dn 9
p271
aVvarao ferro 9/9 sinobras 9 kg 9 mm ca 9 9
p272
aVneomicina bacit pom nebactrina 9 gr
p273
aVgardenal 9 mg 9 cp
p274
aVoxig nio med cil om 9 m 9 onu 9 9 9 9
p275
aVmarreta oitavada 9 g forjada ref 9/9
p276
aVdiazepam 9 mg 9 cp b 9 
p277
aVoxigenio medicinal cil 9 m 9  
p278
aVteicoplanina 9 mg injetavel cx 9
p279
aVenalapril 9 mg cpr
p280
aVagua mineral 9 litros
p281
aVpilha rayovac media c 9
p282
aVfluoxetina 9 mg cx 9 caps g c 9
p283
aVovos c 9 und
p284
aVfita adesiva autoclave 9 mm x 9 m                 
p285
aVbenzilpenicilina 9 cx 9
p286
aVnylon 9 9 c ag 9 cm cx 9
p287
aVkit pnld
p288
aVovos vermelho cascavel c 9
p289
aVar med  cil 9 m 9 om 9 l onu 9 na 9 9
p290
aVtinta po cal megao 9 kg
p291
aVcostela congelada kg
p292
aVdiazepam 9 mg cx 9 comp b 9 
p293
aVceftriaxona 9 gr iv cx 9 fa celltriaxon fab  cellofarm
p294
aVleite em po ninho integral nestle 9 g
p295
aVvitergyl c 9 g c 9 comp eferv
p296
aVafolic 9 mg c 9 comp hosp natulab hosp 
p297
aVpapel hig  institu  lorde verde bco 9 celulose c 9 m fd c 9 rl lorde
p298
aVcaptopril 9 mg cpr
p299
aVtrinulox cr derm c 9 g
p300
aV actilyse 9 mg cx 9 f a dil 9 ml canu alteplase boehringer
p301
aVoxigenio ppu
p302
aVtinta luxcril 9 l branco neve lux
p303
aVrolo de la 9 cm atlas
p304
aVmetronidazol 9 mg gel vag apl 9 g imposto ibpt nacional 9 
p305
aVatenolol 9 mg cx 9 cps  gen
p306
aVunid proc dig peq cap unid proc dig hp d
p307
aVamoxacilina 9 mg susp fr 9 ml imposto ibpt nacional 9 
p308
aVmaca gala grande kg
p309
aVjg pastilha freio dianteiro
p310
aVatenolol 9 mg cx 9 comp  vitamedic 
p311
aVdiatex acrilico vanilla 9 l
p312
aVpapel oficio a 9 report 9 x 9 c 9 fls
p313
aVkabiven peripheral 9 kcal 9 ml cx 9 br 9 lot 9 if 9 val  fab 
p314
aVtinta iquine pintalar vinil acr 9 l perola
p315
aVspar ht 9 bb 9 lts
p316
aVg glimepirida 9 mg c 9 sandoz
p317
aValgodao hidrofilo 9 gr
p318
aVhalo 9 mg haloperidol 9 cpr c 9 
p319
aVdexa 9 g creme 9 mg g
p320
aVkollagenase c cloraf bisn 9 g cx 9
p321
aVmetronidazol 9 mg g gel vaginal 9 bg 9
p322
aVpapel grau cirurgico grande 9 mm x 9 m lote m 9 
p323
aVsyphilis ice c 9 t lote d 9 marca diasorin
p324
aVbutilescopolamina dipirona sodica 9 ml cx 9 amp
p325
aVveda rosca 9 x 9 mts polytubes
p326
aVoxigenio med cil linde 9 l 9 m 9 vz onu 9 oxigenio  comprimido 9 9 9
p327
aVmassa corrida 9 l balde
p328
aVneomicina bacitracina pom  9 g
p329
aVbio latex fr completo quibasa
p330
aVoxigenio med  em cil  9 m 9 tq 9 na 9 onu
p331
aVextralatex branco neve 9 lt hidracor
p332
aVsapucaia serr em linha 9 m 9/9
p333
aVcompressa gaze 9 x 9 9 fios 9 und
p334
aVtecido tnt cor div 9 x 9 m 9 p polipropilento
p335
aVpetrol carflex c 9 kg bd
p336
aVpratiglos pom 9 gr pratidonad
p337
aVcimento cpii z 9 rs nbr 9 nbr 9 9 kg cf 9
p338
aVleite em po integral italac 9 x 9 g
p339
aVcaneta esferografica azul 9 c 9 und
p340
aVoleo 9 w 9 9 l brutu
p341
aVdialine esm  platina gl gl 9 x 9
p342
aValgodao em rolo hidrofilo 9 gr marca melhor med 
p343
aValgodao 9 9 c ag 9 cm cx c 9
p344
aVpapel higienico personal lavanda 9 r 9 m
p345
aVremoved cera becker tira facil c 9 lt 9
p346
aVvarao ferro 9/9 sinobras 9 kg 9 mm ca 9 9
p347
a.