(lp1
Vfluoxetina 9 mg cx 9 caps g c 9
p2
aVceftriaxona 9 g f a cx 9
p3
aVmetronidazol 9 mg g gel vaginal 9 bg 9
p4
aVlona 9 x 9 9 kg preta
p5
aVeva em folha c 9
p6
aVcimento 9 kg zebu cinza
p7
aVfluconazol 9 mg cmp medqu 
p8
aVoxigenio 9 m 9
p9
aVkit pnld
p10
aVovos bandeja com 9 und
p11
aVmassa corrida 9 l balde
p12
aVcostela congelada kg
p13
aVthinner galao 9 lt 9
p14
aVduovent aer fr 9 ml
p15
aVcarbamazepina 9 mg 9 cp c 9 
p16
aVsonda de aspiracao traqueal n 9 pct  c 9 medsonda 
p17
aVpermanganato de potassio 9 mg cmp mario 
p18
aVcoloracao panotico rapido conj  9 x 9 ml
p19
aVamiodarona 9 mg 9 cp
p20
aVsaco para lixo branco hospitalar 9 lt
p21
aVagulha desc 9 x 9 9 und
p22
aVnistatina creme vag 9 ui g 9 g gen
p23
aVpapel linho tam a 9 c 9 und bco offpaper
p24
aVbarra chata 9/9 x 9/9 a 9 9 m
p25
aVflocos de milho 9 g c 9 extramilho
p26
aVsab o em p guarani sach 9 x 9 g
p27
aVpapel grau cirurgico 9 mmx 9 m
p28
aVselador acrilico iquine delanil 9 l
p29
aVconj poa 9 pcs tw 9 9/9
p30
aVjogo junta superior c ret
p31
aVfenocris 9 mg fenobarbital cp b 9 
p32
aVcefalexina 9 ml ml po o  susp oral fr 9 ml
p33
aVgentamicina 9 mg 9 ml inj  c 9 amp 
p34
aVoxigenio ppu
p35
aVomeprazol 9 mg comp lt 9 i 9
p36
aValgodao hidrofilo 9 gr
p37
aVovos granja mauricea c 9
p38
aVmolho de alho 9 gr
p39
aVsustrate c 9 cp
p40
aVlubrificante ursa super td sae 9 w 9 9 l
p41
aVbase coralservice coralmur 9 lt t 
p42
aVliex 9 9 l detergente neutro uso geral
p43
aVlevonorg etinilest 9 caps
p44
aVceftriaxona 9 g iv im s dil cx 9 amplospec 
p45
aVdoce de leite pastoso sem corante embal  c  9 gr marca triangulo
p46
aVcarvedilol 9 mg c 9 gen
p47
aVfr latex 9 ml marca biotecnica lote 9 h 9 a
p48
aVcimento apodi cp ii z 9 kg
p49
aVneomicina bacitracina 9 g sobral neo
p50
aVovos de granja dm ovos c 9 unds
p51
aVfeijao carioca tipo 9 9 x 9 kg
p52
aVliex soft 9 l amaciante a base de quatern rio
p53
aVmassa corri 9 lt diatex iquine
p54
aVtinta extralux esm sint 9 l azul del rey 9 lux
p55
aVoxigenio samu
p56
aVacrysof sa 9 at 9 g ms 9 lote 9 val 9 9 
p57
aVsaco para lixo branco hospitalar 9 lt
p58
aVpapel oficio a 9 report 9 x 9 c 9 fls
p59
aVhemovirtus pom 9 g 
p60
aVlubrax top turbo 9 w 9 9 l
p61
aVovos brancos bandeja c  9 und
p62
aVcaptopril 9 mg cpr
p63
aVatenolol 9 mg cx 9 comp  vitamedic 
p64
aVoxigenio 9 mts
p65
aVoxigenio med cil linde 9 l 9 m 9 vz onu 9 oxigenio  comprimido 9 9 9
p66
aVdesinfetante novo brilho caravela 9 l
p67
aVabridor de boca adulto maquira 9 un 
p68
aVthinner galao
p69
aVmacarrao tipo espaquete 9 g
p70
aVkit pnld
p71
aVoleo dulub hidraulico 9 9 lt
p72
aVar comprimido 9 m 9
p73
aVcaptopril 9 mg 9 cp
p74
aVcompexo b liquido  fr 9 ml medqu 
p75
aVpapel grau cirurgico 9 cmx 9 mt rl
p76
aVtubo p col  a vacuo plast  tp am 9 ml 9 x 9 mm c ativ  coag  gel sep rack c 9 und lote 9/9 marca injex
p77
aVlapis grafite n 9 sem ponteira pacote c 9 und
p78
aVmetildopa 9 mg c 9 comp imposto ibpt nacional 9 
p79
aVprednisona 9 mg comprimidos
p80
aVtirreno arla 9 9 l
p81
aVcetoconazol creme bisn  9 gr hipolabor mg 
p82
aVclindamicina 9 mg amp  uni o qu mica
p83
aVgaze hidrofila 9 cmx 9 m 9 fios stander nataly
p84
aVbabymed rosa 9 g cimed
p85
aVoleo mobil mx 9 lt
p86
aVpapel oficio a 9 report 9 x 9 c 9 fls
p87
aVeletroduto corrugado 9 mm 9 mt amarelo
p88
aVmeclin 9 mg c 9 comp 
p89
aVbisc  c  cracker vitarella trad 9 g
p90
aVcaldo de carne galinha 9 x 9 gr knnor
p91
aVtinta po cal megao 9 kg
p92
aVversatil clor bd 9 kg
p93
aVpapel grau cir ph 9 mmx 9 mt
p94
aValmondegas ao molho de tomate 9 g
p95
aVglyvenol 9 mg drg cx 9 bl x 9
p96
aVlubrax extra turbo 9 lt
p97
aVovos c 9 und
p98
aVdipirona 9 mg apres  cx c 9 cpr sobral pi 
p99
aVgamax com 9 cpr
p100
aVnistatina creme vag  aplic  9 g
p101
aVpelicula g 9 9 mts chacoal grafite flex 
p102
aVnoex 9 mcg c 9 doses
p103
aVfeij o carioca bi bom 9 x 9 kg
p104
aVbolacha crean ckacer 9 gr
p105
aVpapel a 9 copimax 9 x 9 c 9 fls 9 x 9
p106
aVproteina texturizada de soja supresoy carne 9 g
p107
aVcimento elizabeth cp ii z 9 c 9 kg
p108
aVsabao em po 9 x 9 g
p109
aVkit pnld
p110
aVlamina para estilete  a o largura de 9 cm c  9 und 
p111
aVtubo pvc 9 mm c 9 mts p bolsa classe a
p112
aVbot o bonor ny pol  9/9 9 pto c 9 und
p113
aVoxigenio med cil linde 9 l 9 m 9 vz onu 9 oxigenio  comprimido 9 9 9
p114
aV clor cefepima 9 g po p sol inj cx 9 f cefepima  cloridrato aurobindo
p115
aVleite em po integral italac 9 x 9 g
p116
aVcreme de goiaba tambau 9 kg
p117
aVceftriaxona 9 g po sol inj im iv cx 9
p118
aVgel ultrassonografia 9 kg vicpharma 
p119
aVbandeja de ovos c  9 und
p120
aVpano de prato c  9 ud
p121
aVkit pnld
p122
aVmilho verde predilecta lata 9 g
p123
aVcilindro de oxig nio de 9 m 
p124
aVoxigenio 9 m 9
p125
aVneomicina bacit pom nebactrina 9 gr
p126
aVoxigenio med cil linde 9 l 9 m 9 vz onu 9 oxigenio  comprimido 9 9 9
p127
aVoxigenio 9 m 9
p128
aVmetformina 9 mg cx 9
p129
aVtinta luxcril 9 l branco neve lux
p130
aVdialine esm sec rap bco neve 9 l
p131
aVhyplex b inj cx 9 amp complexo b 
p132
aVkolagenase c cloraf pom 9 gr f
p133
aVsuccinil colin 9 mg 9 amp
p134
aVcimento cp ii z 9 cimpor 9 kg
p135
aVoxig nio med  cil om 9 l
p136
aVmetronidazol 9 mg generico cprs prati donaduzzi pr 
p137
aVoxigenio medicinal cil t 9 m 9  
p138
aVdialine esmalt gl branco neve
p139
aV actilyse 9 mg cx 9 f a dil 9 ml canu alteplase boehringer
p140
aVmetilprednisolona 9 mg f a dil 9 ml unimedrol 
p141
aVranitidina 9 mg 9 cp
p142
aVsab o em p guarani sach 9 x 9 g
p143
aVglicose 9 f a 9 ml isofarma 
p144
aVnebaciderme 9 g pomada mult
p145
aV papel a 9 9 g copimax
p146
aVcopo descart vel caixa c  9 unid copobras
p147
aVcompressa 9 x 9 9 fios c 9 esteril
p148
aVdiazepam 9 mg cx 9 cpr  uni diazepax b 9 
p149
aVpapel oficio a 9 report 9 x 9 c 9 fls
p150
aVpapel grau cirurgico 9 cm x 9 mt imposto ibpt nacional 9 
p151
aVcal supercal 9 kg
p152
aVcetoconazol creme 9 g sobral 
p153
aVoxigenio 9 m 9
p154
aVthinner tempo 9 gl 9 l
p155
aVsal campeao 9 kg comum iodado
p156
aVteicoplanina 9 mg koplan cx 9 f a dil novafarma
p157
aVatadura crepe 9 cm x 9 m ortoflex
p158
aVjg lona d t 9/9 dm 9 dna 9 9 9
p159
aVcarrinho metalosa 9 x 9 verm 9 l c 9 un
p160
aVdetergente 9 l fd
p161
aVsaco p  lixo preto 9 lts
p162
aVluva de procedimento p cx 9
p163
aVluva procedim top quality tam p 9 un medix 
p164
aVomeprazol 9 mg injetavel cx 9 ampolas oprazon 
p165
aVdiazepam 9 mg 9 cp b 9 
p166
aVovos c 9 und
p167
aVargamassa quart  aci 9 kg
p168
aVcopo desc copobras transp 9 ml
p169
aVfluoxetina 9 mg cx c 9 c 9             lote 9 valid  9
p170
aVcabergolina 9 mg ct 9 fr c  9 cp
p171
aVamoxacilina 9 mg susp fr 9 ml imposto ibpt nacional 9 
p172
aVatadura crepom 9 x 9 9 fios pct 9 rls biote 
p173
aVsoro fisiologico 9 9 ml c 9 amp
p174
aV levomepromazina 9 mg comp cristalia lote 9
p175
aVpapel higienico 9 mts
p176
aVcimento 9 kg 
p177
aVtirreno arla 9 9 l
p178
aV pentasa 9 mg cx 9 cpr mesalazina ferring
p179
aVpapel oficio a 9 9 x 9 c 9 fls
p180
aVtinta luxcril 9 l branco gelo lux
p181
aVacrysof sa 9 at 9 g ms 9 lote 9 val 9 9 
p182
aVrolo de la 9 cm atlas
p183
aVcafe nordestino 9 g
p184
aVmetronidazol 9 mg 9 cpr
p185
aVarla 9 9 lt
p186
aVmargarina vegetal 9 g
p187
aVcimento ligamax externo eliane 9 kg
p188
aVcimento cpii 9 kg
p189
aVteicoplanina 9 mg injetavel cx 9
p190
aVunid proc dig peq cap unid proc dig hp d
p191
aVentretela colante 9 mt
p192
aVovos vermelho cascavel c 9
p193
aVfenocris 9 mg fenobarbital amp b 9 
p194
aVcefazolina sodica 9 g po liof inj cx 9
p195
aVpinta piso azul gl gl 9 x 9
p196
aVcoco ralado mais coco 9 g
p197
aVatroveran comp 9 x 9
p198
aVmetformina 9 mg 9 cp
p199
aVoxigenio medicinal cil t 9 m 9
p200
aVleite em po integral saco 9 g 
p201
aValbendazol 9 mg 9 cp
p202
aVconjunto para circulacao extracorporea neonato
p203
aVflocao sao braz 9 x 9 g
p204
aVoxigenio medicinal cil pp  
p205
aVsaco para lixo preto 9 lt
p206
aVovos c 9 und
p207
aVtrinulox cr derm c 9 g
p208
aVmassa corrida 9 l balde
p209
aVceftriaxona 9 gr iv cx 9 fa celltriaxon fab  cellofarm
p210
aVcaldo arisco galinha 9 x 9 g
p211
aVcarbamazepina 9 mg cx 9 comp c 9 uniao quimica
p212
aVglutaron 9 dias 9 l inativador 9 g
p213
aVclips n 9/9 9 g
p214
aVflocao sao braz 9 x 9 g
p215
aVreparil gel 9 gr
p216
aVnimesulida 9 mg cx 9 comp  vitamedic 
p217
aVprometazina 9 mg comp teuto 
p218
aVazitromicina azitrophar 9 mg comp  pharlab
p219
aVsolvente natrielli gl 9 lt
p220
aVkabiven peripheral 9 kcal 9 ml cx 9 br 9 lot 9 if 9 val  fab 
p221
aVestriol creme vaginal 9 mg 9 g
p222
aVoxigenio med em cil 9 m 9 tg 9 na un 9
p223
aVdexametasona 9 creme 9 g
p224
aVengov c 9 x 9 cpr
p225
aVdipirona 9 mg c 9 comp greenpharma greenpharma 
p226
aVmassa acrilica colorplus 9 kg
p227
aVdigoxina 9 mg c 9 comp
p228
aVcetoconazol 9 mg cx 9 gen
p229
aVagua mineral 9 litros
p230
aVsaco para lixo preto 9 l
p231
aVequinos 9 ma 9 kg
p232
aVmiconazol creme vaginal 9 g prati donad lt 9 i 9 j vl 
p233
aVdorene 9 mg cps 9 x 9 c 9 etico pn
p234
aVtinta rende muito 9 lts verde kiwi
p235
aVdexametasona creme 9 mg g 9 g sobral 
p236
aVdesinfetante concentrado caravela 9 lt
p237
aVsal campeao 9 kg
p238
aVbromazepam 9 mg cprs b 9 gen teuto go 
p239
aVkollagenase c cloraf bisn 9 g cx 9
p240
aVcetoconazol dip betamet pom 9 g g 
p241
aVlapis hidrocor c 9 neopen compactor
p242
aVkit estabilizador diant 9
p243
aVloratadina 9 mg 9 bl x 9 comp cx c 9 comp
p244
aV9 haloperidol 9 mg comprimido
p245
aVceftriaxona 9 gr iv im s dil cx  9 f a biochimico 
p246
aVcer 9 x 9 icapui bco a cx 9 m cerbras
p247
aVcopo caneca  marca kit merenda
p248
aVsaco lixo evaristo 9 super refo 9 l
p249
aVargamassa itatiunga aci 9 kg
p250
aVdexametasona inj 9 mg ml 9 ml cx c  9 lote t 9/9
p251
aVbaclofeno 9 mg c 9 comp lote 9
p252
aVpapel hig  institu  lorde verde bco 9 celulose c 9 m fd c 9 rl lorde
p253
aVceftriaxona sodica 9 g inj amp g 
p254
aVcimento portland composto apodi cp ii e 9 9 kg 
p255
aVoxigenio 9 m 9
p256
aVar med  cil 9 m 9 om 9 l onu 9 na 9 9
p257
aVoxigenio 9 m 9
p258
aVpapel higienico folha dupla fardo com 9 pct com 9 und 
p259
aVneomicina bacitracina pomada 9 g lote 9/9 
p260
aVkit andamento titan 9 riffel 
p261
aVletahcide plus bb 9 l
p262
aVatadura crepom 9 cm pct c  9
p263
aVmassa corrida 9 lts
p264
aVluva de procedimento p cx c 9 embramac 
p265
aVsoro fisio 9 sist fec 9 ml cx 9 amp farmace 
p266
aVtnt rosas pk 9 grx 9 m 9 p polipropileno
p267
aVtinta luxcril 9 l azul profundo lux
p268
aVraio jg trazeiro 9
p269
aVcarbamazepina 9 mg c 9 cx 9 comp  teuto 
p270
aVgraxa chassis golden 9 9 kg
p271
aVoleo ursa la 9 9 lt
p272
aVpapel oficio a 9 report 9 x 9 c 9 fls
p273
aVhioscina dipirona 9 mg cx 9 comp pharlab 
p274
aVoxigenio medicinal cil t 9 m 9  
p275
aVoxido nitroso cil linde 9 l 9 kg vz onu 9 oxido nitroso  comprimido 9 9 9
p276
aVremoved cera becker tira facil c 9 lt 9
p277
aVsais p  reidratacao oral c 9 env 9 gr
p278
aVtoxoplasmose igm atraves da metodologia elisa kit
p279
aVmarreta oitavada 9 g forjada ref 9/9
p280
aV9 amitripitilina 9 mg comprimido
p281
aVextralux 9 l branco
p282
aVsaco p  lixo infectante 9 lts
p283
aVoxigenio ppu
p284
aVpapel toalha c 9 caprice 
p285
aVvitergyl c 9 g c 9 comp eferv
p286
aVkit pnld
p287
aVovos de galinha emb c 9 und
p288
aVomeprazol 9 mg 9 ml dil  cx 9 f a  blausiegel 
p289
aVcimetidina 9 mg comp prati donaduzzi 
p290
aVvarao ferro 9/9 sinobras 9 kg 9 mm ca 9 9
p291
aVfilme para ultrasom typi i normal upp 9 s 9 mm 9 m cx com 9 sony lote 9 
p292
aVcefalexina 9 mg comp gen
p293
aVar medicinal cil k 9 m 9  
p294
aViguatemi floral bb 9 l desinfetante liquido
p295
aVjanumet 9/9 mg 9 cpr
p296
aVversatil past bd 9 kg becker 
p297
aVachocolatado em po 9 g
p298
aVcaneta compactor 9 c 9 az
p299
aVveda rosca 9 x 9 mts polytubes
p300
aVpapel a 9 com 9 folhas rino
p301
aVcaldo de galinha 9 x 9 g
p302
aVtecryl d 9 azul 9 l
p303
aVhalteres ginastica 9 kg emborrachado
p304
aVfita adesiva autoclave 9 mm x 9 m                 
p305
aVsulfato ferroso 9 ng comp  lt 9 f 9 m
p306
aVluva procedimento tam  m cx 9 pares medix 
p307
aVfeijao macassar 9 kg
p308
aVoxigenio med  em cil  9 m 9 tq 9 na 9 onu
p309
aVovos de galinha bandeja c  9 unidades sao luis
p310
aVcomplexo b im iv inj 9 ml amp
p311
aVbucha kit mp prestolite m 9 r vw   ford cummins
p312
aVsulfadiazina de prata 9 mg g cr 9 g gen 
p313
aVoxig nio med cil om 9 m 9 onu 9 9 9 9
p314
aVgarrafa pet cp 9 l ct
p315
aVacrysof sa 9 at 9 g ms 9 lote 9 val 9 9 
p316
aVnorfloxacino 9 mg cpr
p317
aVesponja multiuso unid 9 x 9
p318
aVluva procedimento tam p cx  9 pares
p319
aVdobutamina 9 mg 9 ml amp g 
p320
aVdecnazol 9 mg c 9 comp pharla pharlab hosp 
p321
aVnorepinefrina 9 mg ml cx c  9 amp
p322
aVtinta lux colorir 9 l azul turquesa
p323
aVcimento elizabeth cp ii z 9 c 9 kg
p324
aVcimento de 9 kgs
p325
aVdiazepan 9 mg cx 9 comp b 9 santisa
p326
aVdetergente 9 l fd
p327
aVrefrigerante lim o  peti c  9 l
p328
aVmeropenem 9 g c 9 fa generico abl antibioticos do bras 
p329
aVjg pastilha freio
p330
aVoxigenio medicinal cil pp  
p331
aVpapel grau cirurgico 9 cmx 9 mt rl
p332
aVcomplexo b amp im iv l 9 q 9 f  v 
p333
aVmargarina extra cremosa c sal embal 9 g
p334
aVjg pastilha freio
p335
aVar comprimido 9 m 9
p336
aVshine dry 9 lt
p337
aVtecido tnt 9 x 9 m cores diversas
p338
aVcalcitriol caps 9 mg
p339
aVpapel oficio a 9 report 9 x 9 c 9 fls
p340
aVcimento cpii z 9 saco 9 kg
p341
aVarla 9 flua petrobras 9 l
p342
aVoleo thf 9 lubrax 9 litros
p343
aVvarao ferro 9/9 sinobras 9 kg 9 mm ca 9 9
p344
aVnylon mon  preto 9 9 c  ag  9/9 9 cm cx c 9
p345
aViquine dialine esm 9 l cinza medio bri 
p346
aVatadura crepom 9 cm pct c  9
p347
a.