(lp1
(lp2
I2
aa(lp3
I5
aa(lp4
I2
aa(lp5
I11
aa(lp6
I4
aa(lp7
I12
aa(lp8
I1
aa(lp9
I1
aa(lp10
I6
aa(lp11
I12
aa(lp12
I4
aa(lp13
I6
aa(lp14
I5
aa(lp15
I1
aa(lp16
I6
aa(lp17
I1
aa(lp18
I2
aa(lp19
I7
aa(lp20
I1
aa(lp21
I1
aa(lp22
I7
aa(lp23
I1
aa(lp24
I1
aa(lp25
I1
aa(lp26
I1
aa(lp27
I1
aa(lp28
I1
aa(lp29
I9
aa(lp30
I1
aa(lp31
I1
aa(lp32
I1
aa(lp33
I1
aa(lp34
I2
aa(lp35
I1
aa(lp36
I7
aa(lp37
I1
aa(lp38
I1
aa(lp39
I6
aa(lp40
I1
aa(lp41
I3
aa(lp42
I7
aa(lp43
I5
aa(lp44
I2
aa(lp45
I1
aa(lp46
I1
aa(lp47
I1
aa(lp48
I13
aa(lp49
I12
aa(lp50
I1
aa(lp51
I7
aa(lp52
I6
aa(lp53
I10
aa(lp54
I5
aa(lp55
I1
aa(lp56
I2
aa(lp57
I1
aa(lp58
I1
aa(lp59
I5
aa(lp60
I1
aa(lp61
I1
aa(lp62
I1
aa(lp63
I1
aa(lp64
I1
aa(lp65
I5
aa(lp66
I1
aa(lp67
I1
aa(lp68
I11
aa(lp69
I13
aa(lp70
I1
aa(lp71
I1
aa(lp72
I1
aa(lp73
I1
aa(lp74
I1
aa(lp75
I2
aa(lp76
I1
aa(lp77
I1
aa(lp78
I4
aa(lp79
I2
aa(lp80
I14
aa(lp81
I1
aa(lp82
I1
aa(lp83
I6
aa(lp84
I12
aa(lp85
I1
aa(lp86
I1
aa(lp87
I6
aa(lp88
I1
aa(lp89
I1
aa(lp90
I3
aa(lp91
I1
aa(lp92
I11
aa(lp93
I3
aa(lp94
I11
aa(lp95
I6
aa(lp96
I4
aa(lp97
I3
aa(lp98
I1
aa(lp99
I4
aa(lp100
I1
aa(lp101
I4
aa(lp102
I2
aa(lp103
I1
aa(lp104
I1
aa(lp105
I1
aa(lp106
I2
aa(lp107
I4
aa(lp108
I1
aa(lp109
I1
aa(lp110
I10
aa(lp111
I2
aa(lp112
I4
aa(lp113
I9
aa(lp114
I4
aa(lp115
I1
aa(lp116
I9
aa(lp117
I3
aa(lp118
I7
aa(lp119
I9
aa(lp120
I1
aa(lp121
I1
aa(lp122
I1
aa(lp123
I1
aa(lp124
I8
aa(lp125
I5
aa(lp126
I3
aa(lp127
I14
aa(lp128
I4
aa(lp129
I1
aa(lp130
I5
aa(lp131
I6
aa(lp132
I1
aa(lp133
I5
aa(lp134
I1
aa(lp135
I0
aa(lp136
I1
aa(lp137
I1
aa(lp138
I9
aa(lp139
I6
aa(lp140
I2
aa(lp141
I4
aa(lp142
I2
aa(lp143
I1
aa(lp144
I1
aa(lp145
I4
aa(lp146
I1
aa(lp147
I6
aa(lp148
I9
aa(lp149
I1
aa(lp150
I3
aa(lp151
I4
aa(lp152
I3
aa(lp153
I0
aa(lp154
I1
aa(lp155
I1
aa(lp156
I13
aa(lp157
I1
aa(lp158
I4
aa(lp159
I1
aa(lp160
I6
aa(lp161
I6
aa(lp162
I1
aa(lp163
I7
aa(lp164
I3
aa(lp165
I2
aa(lp166
I1
aa(lp167
I9
aa(lp168
I2
aa(lp169
I7
aa(lp170
I1
aa(lp171
I7
aa(lp172
I1
aa(lp173
I1
aa(lp174
I1
aa(lp175
I7
aa(lp176
I4
aa(lp177
I5
aa(lp178
I2
aa(lp179
I1
aa(lp180
I12
aa(lp181
I1
aa(lp182
I1
aa(lp183
I1
aa(lp184
I2
aa(lp185
I1
aa(lp186
I1
aa(lp187
I1
aa(lp188
I1
aa(lp189
I6
aa(lp190
I1
aa(lp191
I7
aa(lp192
I2
aa(lp193
I1
aa(lp194
I1
aa(lp195
I1
aa(lp196
I2
aa(lp197
I1
aa(lp198
I6
aa(lp199
I5
aa(lp200
I10
aa(lp201
I1
aa(lp202
I6
aa(lp203
I2
aa(lp204
I4
aa(lp205
I1
aa(lp206
I2
aa(lp207
I13
aa(lp208
I6
aa(lp209
I13
aa(lp210
I1
aa(lp211
I2
aa(lp212
I2
aa(lp213
I1
aa(lp214
I15
aa(lp215
I3
aa(lp216
I5
aa(lp217
I1
aa(lp218
I2
aa(lp219
I1
aa(lp220
I1
aa(lp221
I1
aa(lp222
I1
aa(lp223
I8
aa(lp224
I1
aa(lp225
I2
aa(lp226
I1
aa(lp227
I10
aa(lp228
I14
aa(lp229
I1
aa(lp230
I4
aa(lp231
I1
aa(lp232
I12
aa(lp233
I7
aa(lp234
I1
aa(lp235
I1
aa(lp236
I3
aa(lp237
I1
aa(lp238
I1
aa(lp239
I2
aa(lp240
I6
aa(lp241
I1
aa(lp242
I1
aa(lp243
I8
aa(lp244
I13
aa(lp245
I1
aa(lp246
I1
aa(lp247
I0
aa(lp248
I5
aa(lp249
I1
aa(lp250
I6
aa(lp251
I12
aa(lp252
I2
aa(lp253
I1
aa(lp254
I2
aa(lp255
I14
aa(lp256
I1
aa(lp257
I6
aa(lp258
I4
aa(lp259
I13
aa(lp260
I3
aa(lp261
I1
aa(lp262
I1
aa(lp263
I1
aa(lp264
I4
aa(lp265
I5
aa(lp266
I5
aa(lp267
I5
aa(lp268
I1
aa(lp269
I1
aa(lp270
I2
aa(lp271
I1
aa(lp272
I6
aa(lp273
I1
aa(lp274
I3
aa(lp275
I1
aa(lp276
I5
aa(lp277
I3
aa(lp278
I4
aa(lp279
I4
aa(lp280
I6
aa(lp281
I2
aa(lp282
I1
aa(lp283
I6
aa(lp284
I1
aa(lp285
I5
aa(lp286
I5
aa(lp287
I0
aa(lp288
I5
aa(lp289
I1
aa(lp290
I1
aa(lp291
I1
aa(lp292
I3
aa(lp293
I5
aa(lp294
I6
aa(lp295
I1
aa(lp296
I11
aa(lp297
I1
aa(lp298
I1
aa(lp299
I1
aa(lp300
I1
aa(lp301
I8
aa(lp302
I1
aa(lp303
I1
aa(lp304
I8
aa(lp305
I5
aa(lp306
I1
aa(lp307
I6
aa(lp308
I1
aa(lp309
I1
aa(lp310
I3
aa(lp311
I10
aa(lp312
I1
aa(lp313
I1
aa(lp314
I12
aa(lp315
I1
aa(lp316
I1
aa(lp317
I4
aa(lp318
I1
aa(lp319
I1
aa(lp320
I1
aa(lp321
I1
aa(lp322
I8
aa(lp323
I9
aa(lp324
I2
aa(lp325
I1
aa(lp326
I5
aa(lp327
I1
aa(lp328
I6
aa(lp329
I4
aa(lp330
I4
aa(lp331
I2
aa(lp332
I10
aa(lp333
I3
aa(lp334
I1
aa(lp335
I3
aa(lp336
I1
aa(lp337
I1
aa(lp338
I1
aa(lp339
I12
aa(lp340
I14
aa(lp341
I1
aa(lp342
I1
aa(lp343
I1
aa(lp344
I4
aa(lp345
I1
aa(lp346
I4
aa(lp347
I8
aa(lp348
I6
aa(lp349
I1
aa(lp350
I1
aa(lp351
I3
aa(lp352
I6
aa(lp353
I8
aa(lp354
I1
aa(lp355
I1
aa(lp356
I2
aa(lp357
I9
aa(lp358
I7
aa(lp359
I2
aa(lp360
I2
aa(lp361
I6
aa(lp362
I1
aa(lp363
I5
aa(lp364
I1
aa(lp365
I4
aa(lp366
I1
aa(lp367
I1
aa(lp368
I1
aa(lp369
I3
aa(lp370
I3
aa(lp371
I4
aa(lp372
I7
aa(lp373
I1
aa(lp374
I2
aa(lp375
I1
aa(lp376
I1
aa(lp377
I13
aa(lp378
I1
aa(lp379
I1
aa(lp380
I2
aa(lp381
I2
aa(lp382
I2
aa(lp383
I2
aa(lp384
I3
aa(lp385
I1
aa(lp386
I1
aa(lp387
I3
aa(lp388
I1
aa(lp389
I1
aa(lp390
I2
aa(lp391
I1
aa(lp392
I1
aa(lp393
I5
aa(lp394
I1
aa(lp395
I1
aa(lp396
I1
aa(lp397
I1
aa(lp398
I1
aa(lp399
I1
aa(lp400
I1
aa(lp401
I3
aa(lp402
I5
aa(lp403
I5
aa(lp404
I7
aa(lp405
I7
aa(lp406
I6
aa(lp407
I1
aa(lp408
I9
aa(lp409
I6
aa(lp410
I1
aa(lp411
I3
aa(lp412
I1
aa(lp413
I1
aa(lp414
I4
aa(lp415
I1
aa(lp416
I1
aa(lp417
I1
aa(lp418
I1
aa(lp419
I1
aa(lp420
I1
aa(lp421
I6
aa(lp422
I1
aa(lp423
I11
aa(lp424
I4
aa(lp425
I5
aa(lp426
I6
aa(lp427
I8
aa(lp428
I5
aa(lp429
I6
aa(lp430
I2
aa(lp431
I1
aa(lp432
I7
aa(lp433
I1
aa(lp434
I11
aa(lp435
I1
aa(lp436
I3
aa(lp437
I1
aa(lp438
I8
aa(lp439
I1
aa(lp440
I1
aa(lp441
I1
aa(lp442
I11
aa(lp443
I6
aa(lp444
I1
aa(lp445
I1
aa(lp446
I3
aa(lp447
I4
aa(lp448
I6
aa(lp449
I1
aa(lp450
I6
aa(lp451
I1
aa(lp452
I1
aa(lp453
I1
aa(lp454
I1
aa(lp455
I10
aa(lp456
I1
aa(lp457
I4
aa(lp458
I1
aa(lp459
I1
aa(lp460
I1
aa(lp461
I1
aa(lp462
I3
aa(lp463
I1
aa(lp464
I7
aa(lp465
I2
aa(lp466
I4
aa(lp467
I5
aa(lp468
I6
aa(lp469
I1
aa(lp470
I1
aa(lp471
I1
aa(lp472
I3
aa(lp473
I1
aa(lp474
I2
aa(lp475
I4
aa(lp476
I6
aa(lp477
I1
aa(lp478
I1
aa(lp479
I8
aa(lp480
I4
aa(lp481
I2
aa(lp482
I14
aa(lp483
I1
aa(lp484
I1
aa(lp485
I1
aa(lp486
I1
aa(lp487
I10
aa(lp488
I6
aa(lp489
I6
aa(lp490
I6
aa(lp491
I4
aa(lp492
I1
aa(lp493
I12
aa(lp494
I1
aa(lp495
I1
aa(lp496
I1
aa(lp497
I5
aa(lp498
I1
aa(lp499
I1
aa(lp500
I2
aa(lp501
I2
aa(lp502
I1
aa(lp503
I1
aa(lp504
I9
aa(lp505
I7
aa(lp506
I7
aa(lp507
I1
aa(lp508
I10
aa(lp509
I9
aa(lp510
I1
aa(lp511
I1
aa(lp512
I1
aa(lp513
I6
aa(lp514
I1
aa(lp515
I1
aa(lp516
I3
aa(lp517
I1
aa(lp518
I1
aa(lp519
I1
aa(lp520
I0
aa(lp521
I2
aa(lp522
I4
aa(lp523
I1
aa(lp524
I3
aa(lp525
I1
aa(lp526
I5
aa(lp527
I4
aa(lp528
I1
aa(lp529
I10
aa(lp530
I1
aa(lp531
I1
aa(lp532
I2
aa(lp533
I1
aa(lp534
I1
aa(lp535
I2
aa(lp536
I8
aa(lp537
I1
aa(lp538
I4
aa(lp539
I3
aa(lp540
I2
aa(lp541
I2
aa(lp542
I8
aa(lp543
I1
aa(lp544
I7
aa(lp545
I4
aa(lp546
I1
aa(lp547
I1
aa(lp548
I1
aa(lp549
I1
aa(lp550
I1
aa(lp551
I6
aa(lp552
I1
aa(lp553
I5
aa(lp554
I14
aa(lp555
I1
aa(lp556
I11
aa(lp557
I7
aa(lp558
I7
aa(lp559
I1
aa(lp560
I11
aa(lp561
I1
aa(lp562
I1
aa(lp563
I5
aa(lp564
I3
aa(lp565
I8
aa(lp566
I10
aa(lp567
I3
aa(lp568
I10
aa(lp569
I5
aa(lp570
I5
aa(lp571
I7
aa(lp572
I1
aa(lp573
I1
aa(lp574
I1
aa(lp575
I1
aa(lp576
I1
aa(lp577
I1
aa(lp578
I10
aa(lp579
I1
aa(lp580
I1
aa(lp581
I1
aa(lp582
I1
aa(lp583
I1
aa(lp584
I1
aa(lp585
I5
aa(lp586
I1
aa(lp587
I1
aa(lp588
I6
aa(lp589
I14
aa(lp590
I6
aa(lp591
I1
aa(lp592
I1
aa(lp593
I4
aa(lp594
I2
aa(lp595
I2
aa(lp596
I5
aa(lp597
I1
aa(lp598
I1
aa(lp599
I3
aa(lp600
I1
aa(lp601
I3
aa(lp602
I1
aa(lp603
I3
aa(lp604
I1
aa(lp605
I1
aa(lp606
I1
aa(lp607
I1
aa(lp608
I1
aa(lp609
I8
aa(lp610
I7
aa(lp611
I2
aa(lp612
I6
aa(lp613
I1
aa(lp614
I2
aa(lp615
I1
aa(lp616
I1
aa(lp617
I6
aa(lp618
I1
aa(lp619
I0
aa(lp620
I1
aa(lp621
I2
aa(lp622
I7
aa(lp623
I6
aa(lp624
I10
aa(lp625
I4
aa(lp626
I4
aa(lp627
I5
aa(lp628
I5
aa(lp629
I4
aa(lp630
I5
aa(lp631
I1
aa(lp632
I1
aa(lp633
I1
aa(lp634
I3
aa(lp635
I12
aa(lp636
I1
aa(lp637
I1
aa(lp638
I13
aa(lp639
I1
aa(lp640
I3
aa(lp641
I6
aa(lp642
I0
aa(lp643
I10
aa(lp644
I6
aa(lp645
I4
aa(lp646
I1
aa(lp647
I3
aa(lp648
I1
aa(lp649
I10
aa(lp650
I1
aa(lp651
I1
aa(lp652
I14
aa(lp653
I1
aa(lp654
I9
aa(lp655
I1
aa(lp656
I1
aa(lp657
I1
aa(lp658
I1
aa(lp659
I6
aa(lp660
I1
aa(lp661
I3
aa(lp662
I4
aa(lp663
I12
aa(lp664
I1
aa(lp665
I1
aa(lp666
I10
aa(lp667
I1
aa(lp668
I2
aa(lp669
I1
aa(lp670
I14
aa(lp671
I1
aa(lp672
I4
aa(lp673
I5
aa(lp674
I3
aa(lp675
I1
aa(lp676
I1
aa(lp677
I1
aa(lp678
I1
aa(lp679
I8
aa(lp680
I3
aa(lp681
I7
aa(lp682
I1
aa(lp683
I3
aa(lp684
I1
aa(lp685
I1
aa(lp686
I1
aa(lp687
I1
aa(lp688
I1
aa(lp689
I1
aa(lp690
I5
aa(lp691
I1
aa(lp692
I1
aa(lp693
I1
aa(lp694
I7
aa(lp695
I4
aa(lp696
I5
aa(lp697
I2
aa(lp698
I6
aa(lp699
I12
aa(lp700
I1
aa(lp701
I1
aa(lp702
I1
aa(lp703
I1
aa(lp704
I5
aa(lp705
I13
aa(lp706
I5
aa(lp707
I1
aa(lp708
I1
aa(lp709
I1
aa(lp710
I3
aa(lp711
I14
aa(lp712
I1
aa(lp713
I1
aa(lp714
I3
aa(lp715
I1
aa(lp716
I9
aa(lp717
I3
aa(lp718
I1
aa(lp719
I4
aa(lp720
I6
aa(lp721
I5
aa(lp722
I14
aa(lp723
I1
aa(lp724
I1
aa(lp725
I1
aa(lp726
I6
aa(lp727
I1
aa(lp728
I3
aa(lp729
I4
aa(lp730
I3
aa(lp731
I1
aa(lp732
I5
aa(lp733
I2
aa(lp734
I1
aa(lp735
I9
aa(lp736
I11
aa(lp737
I2
aa(lp738
I8
aa(lp739
I1
aa(lp740
I7
aa(lp741
I1
aa(lp742
I10
aa(lp743
I1
aa(lp744
I1
aa(lp745
I15
aa(lp746
I1
aa(lp747
I1
aa(lp748
I1
aa(lp749
I1
aa(lp750
I1
aa(lp751
I1
aa(lp752
I1
aa(lp753
I10
aa(lp754
I1
aa(lp755
I1
aa(lp756
I14
aa(lp757
I1
aa(lp758
I1
aa(lp759
I11
aa(lp760
I1
aa(lp761
I1
aa(lp762
I4
aa(lp763
I9
aa(lp764
I2
aa(lp765
I8
aa(lp766
I1
aa(lp767
I1
aa(lp768
I8
aa(lp769
I14
aa(lp770
I14
aa(lp771
I10
aa(lp772
I5
aa(lp773
I10
aa(lp774
I1
aa(lp775
I2
aa(lp776
I4
aa(lp777
I8
aa(lp778
I7
aa(lp779
I1
aa(lp780
I1
aa(lp781
I1
aa(lp782
I3
aa(lp783
I1
aa(lp784
I1
aa(lp785
I12
aa(lp786
I8
aa.