(lp1
(lp2
I1
aa(lp3
I2
aa(lp4
I2
aa(lp5
I5
aa(lp6
I3
aa(lp7
I5
aa(lp8
I1
aa(lp9
I7
aa(lp10
I12
aa(lp11
I3
aa(lp12
I4
aa(lp13
I5
aa(lp14
I4
aa(lp15
I10
aa(lp16
I1
aa(lp17
I3
aa(lp18
I1
aa(lp19
I11
aa(lp20
I1
aa(lp21
I4
aa(lp22
I3
aa(lp23
I2
aa(lp24
I3
aa(lp25
I6
aa(lp26
I2
aa(lp27
I2
aa(lp28
I6
aa(lp29
I4
aa(lp30
I11
aa(lp31
I11
aa(lp32
I1
aa(lp33
I10
aa(lp34
I9
aa(lp35
I13
aa(lp36
I1
aa(lp37
I2
aa(lp38
I3
aa(lp39
I2
aa(lp40
I1
aa(lp41
I4
aa(lp42
I4
aa(lp43
I4
aa(lp44
I1
aa(lp45
I8
aa(lp46
I2
aa(lp47
I3
aa(lp48
I10
aa(lp49
I5
aa(lp50
I2
aa(lp51
I3
aa(lp52
I5
aa(lp53
I4
aa(lp54
I4
aa(lp55
I4
aa(lp56
I7
aa(lp57
I2
aa(lp58
I4
aa(lp59
I3
aa(lp60
I2
aa(lp61
I4
aa(lp62
I3
aa(lp63
I1
aa(lp64
I1
aa(lp65
I6
aa(lp66
I7
aa(lp67
I4
aa(lp68
I3
aa(lp69
I15
aa(lp70
I2
aa(lp71
I12
aa(lp72
I4
aa(lp73
I7
aa(lp74
I1
aa(lp75
I10
aa(lp76
I14
aa(lp77
I3
aa(lp78
I3
aa(lp79
I1
aa(lp80
I1
aa(lp81
I4
aa(lp82
I2
aa(lp83
I9
aa(lp84
I6
aa(lp85
I2
aa(lp86
I4
aa(lp87
I3
aa(lp88
I6
aa(lp89
I1
aa(lp90
I2
aa(lp91
I2
aa(lp92
I5
aa(lp93
I5
aa(lp94
I6
aa(lp95
I2
aa(lp96
I8
aa(lp97
I4
aa(lp98
I3
aa(lp99
I1
aa(lp100
I1
aa(lp101
I2
aa(lp102
I6
aa(lp103
I3
aa(lp104
I5
aa(lp105
I2
aa(lp106
I3
aa(lp107
I2
aa(lp108
I5
aa(lp109
I2
aa(lp110
I12
aa(lp111
I3
aa(lp112
I6
aa(lp113
I3
aa(lp114
I7
aa(lp115
I10
aa(lp116
I2
aa(lp117
I5
aa(lp118
I2
aa(lp119
I5
aa(lp120
I3
aa(lp121
I3
aa(lp122
I12
aa(lp123
I2
aa(lp124
I7
aa(lp125
I7
aa(lp126
I2
aa(lp127
I7
aa(lp128
I7
aa(lp129
I8
aa(lp130
I4
aa(lp131
I4
aa(lp132
I9
aa(lp133
I2
aa(lp134
I9
aa(lp135
I5
aa(lp136
I4
aa(lp137
I1
aa(lp138
I7
aa(lp139
I15
aa(lp140
I10
aa(lp141
I10
aa(lp142
I1
aa(lp143
I2
aa(lp144
I10
aa(lp145
I2
aa(lp146
I2
aa(lp147
I3
aa(lp148
I3
aa(lp149
I1
aa(lp150
I3
aa(lp151
I6
aa(lp152
I5
aa(lp153
I2
aa(lp154
I7
aa(lp155
I4
aa(lp156
I5
aa(lp157
I10
aa(lp158
I6
aa(lp159
I11
aa(lp160
I4
aa(lp161
I4
aa(lp162
I4
aa(lp163
I8
aa(lp164
I3
aa(lp165
I8
aa(lp166
I1
aa(lp167
I3
aa(lp168
I5
aa(lp169
I6
aa(lp170
I8
aa(lp171
I1
aa(lp172
I10
aa(lp173
I14
aa(lp174
I9
aa(lp175
I1
aa(lp176
I6
aa(lp177
I5
aa(lp178
I4
aa(lp179
I8
aa(lp180
I3
aa(lp181
I4
aa(lp182
I2
aa(lp183
I14
aa(lp184
I2
aa(lp185
I1
aa(lp186
I4
aa(lp187
I2
aa(lp188
I5
aa(lp189
I5
aa(lp190
I8
aa(lp191
I3
aa(lp192
I6
aa(lp193
I3
aa(lp194
I9
aa(lp195
I2
aa(lp196
I15
aa(lp197
I2
aa(lp198
I1
aa(lp199
I1
aa(lp200
I7
aa(lp201
I2
aa(lp202
I1
aa(lp203
I11
aa(lp204
I2
aa(lp205
I13
aa(lp206
I4
aa(lp207
I3
aa(lp208
I2
aa(lp209
I4
aa(lp210
I8
aa(lp211
I2
aa(lp212
I1
aa(lp213
I4
aa(lp214
I2
aa(lp215
I2
aa(lp216
I2
aa(lp217
I1
aa(lp218
I1
aa(lp219
I1
aa(lp220
I4
aa(lp221
I8
aa(lp222
I2
aa(lp223
I3
aa(lp224
I2
aa(lp225
I1
aa(lp226
I1
aa(lp227
I5
aa(lp228
I1
aa(lp229
I8
aa(lp230
I4
aa(lp231
I4
aa(lp232
I5
aa(lp233
I2
aa(lp234
I1
aa(lp235
I4
aa(lp236
I2
aa(lp237
I4
aa(lp238
I5
aa(lp239
I1
aa(lp240
I2
aa(lp241
I2
aa(lp242
I3
aa(lp243
I12
aa(lp244
I8
aa(lp245
I1
aa(lp246
I8
aa(lp247
I6
aa(lp248
I12
aa(lp249
I4
aa(lp250
I5
aa(lp251
I8
aa(lp252
I1
aa(lp253
I6
aa(lp254
I9
aa(lp255
I5
aa(lp256
I7
aa(lp257
I13
aa(lp258
I7
aa(lp259
I3
aa(lp260
I2
aa(lp261
I12
aa(lp262
I4
aa(lp263
I3
aa(lp264
I4
aa(lp265
I3
aa(lp266
I9
aa(lp267
I6
aa(lp268
I4
aa(lp269
I11
aa(lp270
I1
aa(lp271
I5
aa(lp272
I4
aa(lp273
I3
aa(lp274
I1
aa(lp275
I7
aa(lp276
I7
aa(lp277
I4
aa(lp278
I3
aa(lp279
I12
aa(lp280
I2
aa(lp281
I1
aa(lp282
I4
aa(lp283
I4
aa(lp284
I13
aa(lp285
I3
aa(lp286
I1
aa(lp287
I12
aa(lp288
I3
aa(lp289
I10
aa(lp290
I1
aa(lp291
I5
aa(lp292
I6
aa(lp293
I1
aa(lp294
I7
aa(lp295
I4
aa(lp296
I1
aa(lp297
I5
aa(lp298
I2
aa(lp299
I3
aa(lp300
I6
aa(lp301
I3
aa(lp302
I2
aa(lp303
I4
aa(lp304
I5
aa(lp305
I6
aa(lp306
I1
aa(lp307
I8
aa(lp308
I5
aa(lp309
I13
aa(lp310
I3
aa(lp311
I9
aa(lp312
I12
aa(lp313
I2
aa(lp314
I7
aa(lp315
I4
aa(lp316
I2
aa(lp317
I1
aa(lp318
I3
aa(lp319
I8
aa(lp320
I9
aa(lp321
I1
aa(lp322
I9
aa(lp323
I4
aa(lp324
I5
aa(lp325
I5
aa(lp326
I1
aa(lp327
I4
aa(lp328
I4
aa(lp329
I10
aa(lp330
I11
aa(lp331
I13
aa(lp332
I14
aa(lp333
I9
aa(lp334
I2
aa(lp335
I11
aa(lp336
I7
aa(lp337
I4
aa(lp338
I6
aa(lp339
I1
aa(lp340
I3
aa(lp341
I5
aa(lp342
I4
aa(lp343
I4
aa(lp344
I5
aa(lp345
I3
aa(lp346
I4
aa(lp347
I3
aa.