(lp1
(lp2
I2
aa(lp3
I7
aa(lp4
I1
aa(lp5
I12
aa(lp6
I14
aa(lp7
I4
aa(lp8
I4
aa(lp9
I13
aa(lp10
I11
aa(lp11
I7
aa(lp12
I1
aa(lp13
I10
aa(lp14
I4
aa(lp15
I1
aa(lp16
I3
aa(lp17
I3
aa(lp18
I8
aa(lp19
I4
aa(lp20
I5
aa(lp21
I4
aa(lp22
I8
aa(lp23
I8
aa(lp24
I8
aa(lp25
I2
aa(lp26
I6
aa(lp27
I7
aa(lp28
I9
aa(lp29
I9
aa(lp30
I2
aa(lp31
I3
aa(lp32
I4
aa(lp33
I4
aa(lp34
I4
aa(lp35
I5
aa(lp36
I3
aa(lp37
I2
aa(lp38
I5
aa(lp39
I2
aa(lp40
I5
aa(lp41
I4
aa(lp42
I2
aa(lp43
I5
aa(lp44
I3
aa(lp45
I2
aa(lp46
I2
aa(lp47
I1
aa(lp48
I9
aa(lp49
I15
aa(lp50
I8
aa(lp51
I1
aa(lp52
I10
aa(lp53
I4
aa(lp54
I5
aa(lp55
I1
aa(lp56
I1
aa(lp57
I4
aa(lp58
I4
aa(lp59
I6
aa(lp60
I2
aa(lp61
I4
aa(lp62
I6
aa(lp63
I6
aa(lp64
I2
aa(lp65
I2
aa(lp66
I6
aa(lp67
I7
aa(lp68
I3
aa(lp69
I1
aa(lp70
I12
aa(lp71
I11
aa(lp72
I6
aa(lp73
I5
aa(lp74
I7
aa(lp75
I7
aa(lp76
I1
aa(lp77
I4
aa(lp78
I7
aa(lp79
I2
aa(lp80
I15
aa(lp81
I12
aa(lp82
I9
aa(lp83
I4
aa(lp84
I4
aa(lp85
I2
aa(lp86
I3
aa(lp87
I1
aa(lp88
I6
aa(lp89
I1
aa(lp90
I6
aa(lp91
I6
aa(lp92
I1
aa(lp93
I4
aa(lp94
I2
aa(lp95
I2
aa(lp96
I12
aa(lp97
I12
aa(lp98
I8
aa(lp99
I10
aa(lp100
I3
aa(lp101
I11
aa(lp102
I2
aa(lp103
I3
aa(lp104
I7
aa(lp105
I1
aa(lp106
I2
aa(lp107
I9
aa(lp108
I3
aa(lp109
I2
aa(lp110
I1
aa(lp111
I6
aa(lp112
I9
aa(lp113
I9
aa(lp114
I10
aa(lp115
I1
aa(lp116
I8
aa(lp117
I4
aa(lp118
I4
aa(lp119
I7
aa(lp120
I3
aa(lp121
I11
aa(lp122
I3
aa(lp123
I1
aa(lp124
I7
aa(lp125
I1
aa(lp126
I3
aa(lp127
I10
aa(lp128
I1
aa(lp129
I1
aa(lp130
I15
aa(lp131
I2
aa(lp132
I3
aa(lp133
I9
aa(lp134
I3
aa(lp135
I7
aa(lp136
I5
aa(lp137
I1
aa(lp138
I4
aa(lp139
I12
aa(lp140
I8
aa(lp141
I5
aa(lp142
I4
aa(lp143
I3
aa(lp144
I1
aa(lp145
I4
aa(lp146
I12
aa(lp147
I3
aa(lp148
I6
aa(lp149
I14
aa(lp150
I5
aa(lp151
I4
aa(lp152
I8
aa(lp153
I6
aa(lp154
I2
aa(lp155
I1
aa(lp156
I5
aa(lp157
I2
aa(lp158
I2
aa(lp159
I5
aa(lp160
I10
aa(lp161
I1
aa(lp162
I4
aa(lp163
I5
aa(lp164
I9
aa(lp165
I12
aa(lp166
I3
aa(lp167
I11
aa(lp168
I3
aa(lp169
I1
aa(lp170
I5
aa(lp171
I1
aa(lp172
I4
aa(lp173
I5
aa(lp174
I7
aa(lp175
I2
aa(lp176
I9
aa(lp177
I2
aa(lp178
I3
aa(lp179
I2
aa(lp180
I4
aa(lp181
I6
aa(lp182
I1
aa(lp183
I1
aa(lp184
I12
aa(lp185
I6
aa(lp186
I6
aa(lp187
I6
aa(lp188
I3
aa(lp189
I6
aa(lp190
I3
aa(lp191
I1
aa(lp192
I6
aa(lp193
I1
aa(lp194
I9
aa(lp195
I5
aa(lp196
I5
aa(lp197
I11
aa(lp198
I4
aa(lp199
I9
aa(lp200
I7
aa(lp201
I4
aa(lp202
I6
aa(lp203
I4
aa(lp204
I7
aa(lp205
I2
aa(lp206
I2
aa(lp207
I3
aa(lp208
I2
aa(lp209
I2
aa(lp210
I3
aa(lp211
I5
aa(lp212
I10
aa(lp213
I4
aa(lp214
I8
aa(lp215
I9
aa(lp216
I5
aa(lp217
I3
aa(lp218
I4
aa(lp219
I2
aa(lp220
I11
aa(lp221
I1
aa(lp222
I2
aa(lp223
I8
aa(lp224
I4
aa(lp225
I12
aa(lp226
I12
aa(lp227
I1
aa(lp228
I4
aa(lp229
I6
aa(lp230
I5
aa(lp231
I7
aa(lp232
I6
aa(lp233
I3
aa(lp234
I3
aa(lp235
I8
aa(lp236
I4
aa(lp237
I2
aa(lp238
I5
aa(lp239
I1
aa(lp240
I5
aa(lp241
I4
aa(lp242
I4
aa(lp243
I14
aa(lp244
I1
aa(lp245
I12
aa(lp246
I11
aa(lp247
I6
aa(lp248
I12
aa(lp249
I3
aa(lp250
I2
aa(lp251
I1
aa(lp252
I2
aa(lp253
I3
aa(lp254
I1
aa(lp255
I12
aa(lp256
I12
aa(lp257
I4
aa(lp258
I14
aa(lp259
I1
aa(lp260
I10
aa(lp261
I3
aa(lp262
I1
aa(lp263
I7
aa(lp264
I12
aa(lp265
I2
aa(lp266
I4
aa(lp267
I11
aa(lp268
I4
aa(lp269
I7
aa(lp270
I1
aa(lp271
I9
aa(lp272
I5
aa(lp273
I2
aa(lp274
I1
aa(lp275
I7
aa(lp276
I2
aa(lp277
I1
aa(lp278
I7
aa(lp279
I9
aa(lp280
I1
aa(lp281
I4
aa(lp282
I3
aa(lp283
I1
aa(lp284
I3
aa(lp285
I6
aa(lp286
I9
aa(lp287
I9
aa(lp288
I10
aa(lp289
I3
aa(lp290
I15
aa(lp291
I5
aa(lp292
I5
aa(lp293
I1
aa(lp294
I9
aa(lp295
I2
aa(lp296
I1
aa(lp297
I1
aa(lp298
I6
aa(lp299
I1
aa(lp300
I2
aa(lp301
I12
aa(lp302
I15
aa(lp303
I4
aa(lp304
I14
aa(lp305
I2
aa(lp306
I1
aa(lp307
I3
aa(lp308
I12
aa(lp309
I5
aa(lp310
I11
aa(lp311
I1
aa(lp312
I4
aa(lp313
I3
aa(lp314
I9
aa(lp315
I4
aa(lp316
I4
aa(lp317
I3
aa(lp318
I2
aa(lp319
I1
aa(lp320
I2
aa(lp321
I2
aa(lp322
I2
aa(lp323
I6
aa(lp324
I3
aa(lp325
I8
aa(lp326
I6
aa(lp327
I7
aa(lp328
I4
aa(lp329
I2
aa(lp330
I12
aa(lp331
I15
aa(lp332
I4
aa(lp333
I6
aa(lp334
I3
aa(lp335
I6
aa(lp336
I5
aa(lp337
I2
aa(lp338
I5
aa(lp339
I2
aa(lp340
I3
aa(lp341
I4
aa(lp342
I13
aa(lp343
I2
aa(lp344
I3
aa(lp345
I6
aa(lp346
I4
aa(lp347
I5
aa.