ccollections
OrderedDict
p1
((lp2
(lp3
Vindefinido
p4
aI1
aa(lp5
Vml
p6
aI2
aa(lp7
Vcomp
p8
aI3
aa(lp9
Vgrama
p10
aI4
aa(lp11
Vlitro
p12
aI5
aa(lp13
Vunidade
p14
aI6
aa(lp15
Vkg
p16
aI7
aa(lp17
Vmetro
p18
aI8
aa(lp19
Vcaixa
p20
aI9
aa(lp21
Vm3
p22
aI10
aa(lp23
Vampola
p24
aI11
aa(lp25
Vfrasco
p26
aI12
aa(lp27
Vkit
p28
aI13
aa(lp29
Vconjunto
p30
aI14
aa(lp31
Vrolo
p32
aI15
aa(lp33
Vcilindro
p34
aI16
aa(lp35
Vgalao
p36
aI17
aatRp37
.ccollections
OrderedDict
p1
((lp2
(lp3
Vindefinido
p4
aI557
aa(lp5
Vgrama
p6
aI80
aa(lp7
Vkit
p8
aI16
aa(lp9
Vcomp
p10
aI89
aa(lp11
Vunidade
p12
aI65
aa(lp13
Vml
p14
aI104
aa(lp15
Vlitro
p16
aI71
aa(lp17
Vcaixa
p18
aI23
aa(lp19
Vmetro
p20
aI38
aa(lp21
Vampola
p22
aI22
aa(lp23
Vkg
p24
aI44
aa(lp25
Vfrasco
p26
aI17
aa(lp27
Vrolo
p28
aI7
aa(lp29
Vm3
p30
aI23
aa(lp31
Vcilindro
p32
aI5
aa(lp33
Vconjunto
p34
aI12
aa(lp35
Vgalao
p36
aI5
aatRp37
.